Archive member included because of file (symbol)

contiki-mbxxx.a(nullmac.o)    stm-sensor.co (nullmac_driver)
contiki-mbxxx.a(sicslowmac.o)
                              contiki-mbxxx.a(nullmac.o) (sicslowmac_driver)
contiki-mbxxx.a(process.o)    stm-sensor.co (process_post)
contiki-mbxxx.a(etimer.o)     stm-sensor.co (etimer_set)
contiki-mbxxx.a(random.o)     contiki-mbxxx.a(sicslowmac.o) (random_rand)
contiki-mbxxx.a(packetbuf.o)  contiki-mbxxx.a(sicslowmac.o) (packetbuf_hdrreduce)
contiki-mbxxx.a(queuebuf.o)   contiki-mbxxx.a(sicslowmac.o) (queuebuf_to_packetbuf)
contiki-mbxxx.a(sicslowpan.o)
                              contiki-mbxxx.a(nullmac.o) (sicslowpan_driver)
contiki-mbxxx.a(tcpip.o)      contiki-mbxxx.a(sicslowpan.o) (tcpip_set_outputfunc)
contiki-mbxxx.a(uip-debug.o)  stm-sensor.co (uip_debug_ipaddr_print)
contiki-mbxxx.a(uip-ds6-route.o)
                              contiki-mbxxx.a(tcpip.o) (uip_ds6_route_nexthop)
contiki-mbxxx.a(uip-ds6-nbr.o)
                              contiki-mbxxx.a(tcpip.o) (uip_ds6_nbr_add)
contiki-mbxxx.a(uip-ds6.o)    contiki-mbxxx.a(tcpip.o) (uip_ds6_is_addr_onlink)
contiki-mbxxx.a(uip-nd6.o)    contiki-mbxxx.a(tcpip.o) (uip_nd6_ns_output)
contiki-mbxxx.a(uip-udp-packet.)
                              stm-sensor.co (uip_udp_packet_sendto)
contiki-mbxxx.a(uip6.o)       contiki-mbxxx.a(tcpip.o) (uip_conn)
contiki-mbxxx.a(button-sensor.o)
                              stm-sensor.co (button_sensor)
contiki-mbxxx.a(temperature-sen)
                              stm-sensor.co (temperature_sensor)
contiki-mbxxx.a(mems.o)       stm-sensor.co (Mems_Init)
contiki-mbxxx.a(board.o)      stm-sensor.co (boardPrintStringDescription)
contiki-mbxxx.a(leds.o)       stm-sensor.co (leds_on)
contiki-mbxxx.a(clock.o)      contiki-mbxxx.a(etimer.o) (clock_time)
contiki-mbxxx.a(watchdog.o)   contiki-mbxxx.a(sicslowpan.o) (watchdog_periodic)
contiki-mbxxx.a(uart1-putchar.o)
                              stm-sensor.co (putchar)
contiki-mbxxx.a(stm32w-radio.o)
                              contiki-mbxxx.a(sicslowmac.o) (stm32w_radio_driver)
contiki-mbxxx.a(stm32w-systick.)
                              contiki-mbxxx.a(clock.o) (SysTick_CLKSourceConfig)
contiki-mbxxx.a(uip-arch.o)   contiki-mbxxx.a(uip6.o) (uip_add32)
contiki-mbxxx.a(rtimer-arch.o)
                              contiki-mbxxx.a(stm32w-radio.o) (rtimer_arch_now)
contiki-mbxxx.a(adc.o)        contiki-mbxxx.a(temperature-sen) (halAdcSetRange)
contiki-mbxxx.a(micro.o)      contiki-mbxxx.a(watchdog.o) (halReboot)
contiki-mbxxx.a(sleep.o)      contiki-mbxxx.a(stm32w-radio.o) (halSleepWithOptions)
contiki-mbxxx.a(micro-common.o)
                              contiki-mbxxx.a(watchdog.o) (halInternalEnableWatchDog)
contiki-mbxxx.a(micro-common-in)
                              contiki-mbxxx.a(adc.o) (stCalibrateVref)
contiki-mbxxx.a(clocks.o)     contiki-mbxxx.a(micro-common.o) (halInternalCalibrateSlowRc)
contiki-mbxxx.a(mfg-token.o)  contiki-mbxxx.a(board.o) (halInternalGetMfgTokenData)
contiki-mbxxx.a(flash.o)      contiki-mbxxx.a(mfg-token.o) (halInternalFlashWrite)
contiki-mbxxx.a(rand.o)       contiki-mbxxx.a(random.o) (rand)
contiki-mbxxx.a(crt-stm32w108.o)
                              (Default_Handler)
contiki-mbxxx.a(spmr.o)       contiki-mbxxx.a(clock.o) (_writeBasePri)
contiki-mbxxx.a(context-switch.)
                              contiki-mbxxx.a(sleep.o) (halPendSvSaveContext)
contiki-mbxxx.a(rimeaddr.o)   contiki-mbxxx.a(sicslowmac.o) (rimeaddr_copy)
contiki-mbxxx.a(frame802154.o)
                              contiki-mbxxx.a(sicslowmac.o) (frame802154_hdrlen)
contiki-mbxxx.a(framer-802154.o)
                              contiki-mbxxx.a(sicslowpan.o) (framer_802154)
contiki-mbxxx.a(rpl.o)        contiki-mbxxx.a(uip-ds6-nbr.o) (rpl_link_neighbor_callback)
contiki-mbxxx.a(rpl-dag.o)    contiki-mbxxx.a(rpl.o) (rpl_dag_init)
contiki-mbxxx.a(rpl-icmp6.o)  contiki-mbxxx.a(rpl.o) (dao_output_target)
contiki-mbxxx.a(rpl-timers.o)
                              contiki-mbxxx.a(rpl.o) (rpl_reset_periodic_timer)
contiki-mbxxx.a(rpl-mrhof.o)  contiki-mbxxx.a(rpl-dag.o) (rpl_mrhof)
contiki-mbxxx.a(rpl-ext-header.)
                              contiki-mbxxx.a(uip6.o) (rpl_verify_header)
contiki-mbxxx.a(memb.o)       contiki-mbxxx.a(queuebuf.o) (memb_init)
contiki-mbxxx.a(timer.o)      contiki-mbxxx.a(etimer.o) (timer_set)
contiki-mbxxx.a(list.o)       contiki-mbxxx.a(uip-ds6-route.o) (list_init)
contiki-mbxxx.a(ctimer.o)     contiki-mbxxx.a(rpl-timers.o) (ctimer_set)
contiki-mbxxx.a(rtimer.o)     contiki-mbxxx.a(rtimer-arch.o) (rtimer_run_next)
contiki-mbxxx.a(stimer.o)     contiki-mbxxx.a(tcpip.o) (stimer_set)
contiki-mbxxx.a(nbr-table.o)  contiki-mbxxx.a(uip-ds6-route.o) (nbr_table_register)
contiki-mbxxx.a(uip-icmp6.o)  contiki-mbxxx.a(uip6.o) (uip_icmp6_echo_request_input)
contiki-mbxxx.a(sensors.o)    contiki-mbxxx.a(button-sensor.o) (sensors_changed)
contiki-mbxxx.a(contiki-main.o)
                              contiki-mbxxx.a(crt-stm32w108.o) (main)
contiki-mbxxx.a(leds-arch.o)  contiki-mbxxx.a(leds.o) (leds_arch_init)
contiki-mbxxx.a(uart1.o)      contiki-mbxxx.a(contiki-main.o) (uart1_set_input)
contiki-mbxxx.a(procinit.o)   contiki-mbxxx.a(contiki-main.o) (procinit_init)
contiki-mbxxx.a(autostart.o)  contiki-mbxxx.a(contiki-main.o) (autostart_start)
contiki-mbxxx.a(serial-line.o)
                              contiki-mbxxx.a(contiki-main.o) (serial_line_input_byte)
contiki-mbxxx.a(energest.o)   contiki-mbxxx.a(contiki-main.o) (energest_init)
contiki-mbxxx.a(ringbuf.o)    contiki-mbxxx.a(serial-line.o) (ringbuf_init)
contiki-mbxxx.a(netstack.o)   contiki-mbxxx.a(contiki-main.o) (netstack_init)
contiki-mbxxx.a(contact-sensor.)
                              contiki-mbxxx.a(contiki-main.o) (contact_sensor)
../../../cpu/stm32w108/simplemac/library/simplemac-library-gnu.a(phy-library-min.o)
                              contiki-mbxxx.a(contiki-main.o) (ST_RadioGetEui64)
../../../cpu/stm32w108/simplemac/library/simplemac-library-gnu.a(aes-min.o)
                              ../../../cpu/stm32w108/simplemac/library/simplemac-library-gnu.a(phy-library-min.o) (stmLoadKeyIntoCore)
../../../cpu/stm32w108/simplemac/library/simplemac-library-gnu.a(eui64-min.o)
                              ../../../cpu/stm32w108/simplemac/library/simplemac-library-gnu.a(phy-library-min.o) (stmLocalEui64)
../../../cpu/stm32w108/simplemac/library/simplemac-library-gnu.a(misc-min.o)
                              ../../../cpu/stm32w108/simplemac/library/simplemac-library-gnu.a(aes-min.o) (stmStoreInt32u)
../../../cpu/stm32w108/simplemac/library/simplemac-library-gnu.a(phy-min.o)
                              ../../../cpu/stm32w108/simplemac/library/simplemac-library-gnu.a(phy-library-min.o) (stmGetMacTimer)
../../../cpu/stm32w108/simplemac/library/simplemac-library-gnu.a(analogue-min.o)
                              ../../../cpu/stm32w108/simplemac/library/simplemac-library-gnu.a(phy-library-min.o) (stGetTxPowerMode)
../../../cpu/stm32w108/simplemac/library/simplemac-library-gnu.a(analogue-cell-bias-min.o)
                              ../../../cpu/stm32w108/simplemac/library/simplemac-library-gnu.a(analogue-min.o) (stmRadioCalibrateCellBias)
../../../cpu/stm32w108/simplemac/library/simplemac-library-gnu.a(analogue-filter-min.o)
                              ../../../cpu/stm32w108/simplemac/library/simplemac-library-gnu.a(analogue-min.o) (stmRadioCalibrateChannelFilter)
../../../cpu/stm32w108/simplemac/library/simplemac-library-gnu.a(analogue-lna-min.o)
                              ../../../cpu/stm32w108/simplemac/library/simplemac-library-gnu.a(analogue-min.o) (stmRadioCalibrateLna)
../../../cpu/stm32w108/simplemac/library/simplemac-library-gnu.a(analogue-mod-dac-min.o)
                              ../../../cpu/stm32w108/simplemac/library/simplemac-library-gnu.a(analogue-min.o) (stmRadioCalibrateModulationDac)
../../../cpu/stm32w108/simplemac/library/simplemac-library-gnu.a(analogue-vco-min.o)
                              ../../../cpu/stm32w108/simplemac/library/simplemac-library-gnu.a(analogue-min.o) (stmRadioCalibrateVco)
../../../cpu/stm32w108/simplemac/library/simplemac-library-gnu.a(phy-common-min.o)
                              ../../../cpu/stm32w108/simplemac/library/simplemac-library-gnu.a(phy-library-min.o) (stmRadioUnpackChipErrors)
../../../cpu/stm32w108/lib/e_stdio_intonly_thumb2.a(_SP_printf.o)
                              stm-sensor.co (printf)
../../../cpu/stm32w108/lib/e_stdio_intonly_thumb2.a(_SP_vfprintf.o)
                              ../../../cpu/stm32w108/lib/e_stdio_intonly_thumb2.a(_SP_printf.o) (vfiprintf)
../../../cpu/stm32w108/lib/e_stdio_intonly_thumb2.a(_SP_puts.o)
                              stm-sensor.co (puts)
../../../cpu/stm32w108/lib/e_stdio_intonly_thumb2.a(small_wcsrtombs.o)
                              ../../../cpu/stm32w108/lib/e_stdio_intonly_thumb2.a(_SP_vfprintf.o) (_wcsrtombs_r)
../../../cpu/stm32w108/lib/e_stdio_intonly_thumb2.a(small_wcrtomb.o)
                              ../../../cpu/stm32w108/lib/e_stdio_intonly_thumb2.a(_SP_vfprintf.o) (_wcrtomb_r)
contiki-mbxxx.a(nvm.o)        ../../../cpu/stm32w108/simplemac/library/simplemac-library-gnu.a(analogue-min.o) (halCommonReadFromNvm)
/home/prabha/Sourcery_G++_Lite/bin/../lib/gcc/arm-none-eabi/4.5.2/../../../../arm-none-eabi/lib/thumb2/libc.a(lib_a-impure.o)
                              contiki-mbxxx.a(uart1-putchar.o) (_impure_ptr)
/home/prabha/Sourcery_G++_Lite/bin/../lib/gcc/arm-none-eabi/4.5.2/../../../../arm-none-eabi/lib/thumb2/libc.a(lib_a-memchr.o)
                              ../../../cpu/stm32w108/lib/e_stdio_intonly_thumb2.a(_SP_vfprintf.o) (memchr)
/home/prabha/Sourcery_G++_Lite/bin/../lib/gcc/arm-none-eabi/4.5.2/../../../../arm-none-eabi/lib/thumb2/libc.a(lib_a-memcmp.o)
                              contiki-mbxxx.a(sicslowpan.o) (memcmp)
/home/prabha/Sourcery_G++_Lite/bin/../lib/gcc/arm-none-eabi/4.5.2/../../../../arm-none-eabi/lib/thumb2/libc.a(lib_a-memcpy.o)
                              contiki-mbxxx.a(packetbuf.o) (memcpy)
/home/prabha/Sourcery_G++_Lite/bin/../lib/gcc/arm-none-eabi/4.5.2/../../../../arm-none-eabi/lib/thumb2/libc.a(lib_a-memmove.o)
                              contiki-mbxxx.a(sicslowpan.o) (memmove)
/home/prabha/Sourcery_G++_Lite/bin/../lib/gcc/arm-none-eabi/4.5.2/../../../../arm-none-eabi/lib/thumb2/libc.a(lib_a-memset.o)
                              contiki-mbxxx.a(sicslowmac.o) (memset)
/home/prabha/Sourcery_G++_Lite/bin/../lib/gcc/arm-none-eabi/4.5.2/../../../../arm-none-eabi/lib/thumb2/libc.a(lib_a-strcmp.o)
                              contiki-mbxxx.a(board.o) (strcmp)
/home/prabha/Sourcery_G++_Lite/bin/../lib/gcc/arm-none-eabi/4.5.2/../../../../arm-none-eabi/lib/thumb2/libc.a(lib_a-strlen.o)
                              contiki-mbxxx.a(sensors.o) (strlen)
/home/prabha/Sourcery_G++_Lite/bin/../lib/gcc/arm-none-eabi/4.5.2/../../../../arm-none-eabi/lib/thumb2/libc.a(lib_a-strncmp.o)
                              contiki-mbxxx.a(sensors.o) (strncmp)

Allocating common symbols
Common symbol       size              file

uip_ds6_timer_ra    0x8               contiki-mbxxx.a(uip-ds6.o)
uip_ds6_if          0xf8              contiki-mbxxx.a(uip-ds6.o)
uip_ds6_netif_addr_list_offset
                    0x1               contiki-mbxxx.a(uip-ds6.o)
stmRxCRCFail        0x2               ../../../cpu/stm32w108/simplemac/library/simplemac-library-gnu.a(phy-min.o)
uip_len             0x2               contiki-mbxxx.a(uip6.o)
framePendingBitSetTime
                    0x4               ../../../cpu/stm32w108/simplemac/library/simplemac-library-gnu.a(phy-min.o)
mac_retries_left    0x1               contiki-mbxxx.a(stm32w-radio.o)
framePending        0x1               ../../../cpu/stm32w108/simplemac/library/simplemac-library-gnu.a(phy-common-min.o)
uip_ds6_addr_size   0x1               contiki-mbxxx.a(uip-ds6.o)
uip_sappdata        0x4               contiki-mbxxx.a(uip6.o)
packetbuf_addrs     0x20              contiki-mbxxx.a(packetbuf.o)
stmRadioReceiverGain
                    0x2               ../../../cpu/stm32w108/simplemac/library/simplemac-library-gnu.a(phy-min.o)
uip_acc32           0x4               contiki-mbxxx.a(uip6.o)
uip_ds6_prefix_list
                    0x60              contiki-mbxxx.a(uip-ds6.o)
rimeaddr_node_addr  0x8               contiki-mbxxx.a(rimeaddr.o)
frag_sender         0x8               contiki-mbxxx.a(sicslowpan.o)
stmMacAckNeeded     0x1               ../../../cpu/stm32w108/simplemac/library/simplemac-library-gnu.a(phy-common-min.o)
extraAckWorkarounds
                    0x4               ../../../cpu/stm32w108/simplemac/library/simplemac-library-gnu.a(phy-common-min.o)
uip_lladdr          0x8               contiki-mbxxx.a(uip6.o)
uip_aligned_buf     0x8c              contiki-mbxxx.a(uip6.o)
uip_flags           0x1               contiki-mbxxx.a(uip6.o)
boardName           0x10              stm-sensor.co
uip_ds6_timer_periodic
                    0x10              contiki-mbxxx.a(uip-ds6.o)
uip_next_hdr        0x4               contiki-mbxxx.a(uip6.o)
packetRxTime        0x4               ../../../cpu/stm32w108/simplemac/library/simplemac-library-gnu.a(phy-min.o)
default_instance    0x4               contiki-mbxxx.a(rpl-dag.o)
stmRadioReceiverFrameStatus
                    0x2               ../../../cpu/stm32w108/simplemac/library/simplemac-library-gnu.a(phy-min.o)
uip_udp_conn        0x4               contiki-mbxxx.a(uip6.o)
packetbuf_attrs     0x30              contiki-mbxxx.a(packetbuf.o)
stmIncomingMacHeaderLength
                    0x1               ../../../cpu/stm32w108/simplemac/library/simplemac-library-gnu.a(phy-min.o)
instance_table      0xb0              contiki-mbxxx.a(rpl-dag.o)
uip_appdata         0x4               contiki-mbxxx.a(uip6.o)
uip_conn            0x4               contiki-mbxxx.a(uip6.o)
tcpip_event         0x1               contiki-mbxxx.a(tcpip.o)
stmRxOverflow       0x2               ../../../cpu/stm32w108/simplemac/library/simplemac-library-gnu.a(phy-min.o)
uip_conns           0xc0              contiki-mbxxx.a(uip6.o)
droppedAckWorkarounds
                    0x4               ../../../cpu/stm32w108/simplemac/library/simplemac-library-gnu.a(phy-common-min.o)
uip_listenports     0x10              contiki-mbxxx.a(uip6.o)
lastTxSfdTime       0x4               ../../../cpu/stm32w108/simplemac/library/simplemac-library-gnu.a(phy-common-min.o)
sensors_flags       0x5               contiki-mbxxx.a(contiki-main.o)
serial_line_event_message
                    0x1               contiki-mbxxx.a(serial-line.o)
stmLocalEui64       0x8               ../../../cpu/stm32w108/simplemac/library/simplemac-library-gnu.a(eui64-min.o)
sensors_event       0x1               contiki-mbxxx.a(sensors.o)
stmRxPacket         0x2               ../../../cpu/stm32w108/simplemac/library/simplemac-library-gnu.a(phy-min.o)
uip_slen            0x2               contiki-mbxxx.a(uip6.o)
uip_udp_conns       0x80              contiki-mbxxx.a(uip6.o)

Discarded input sections

 .text          0x00000000        0x0 stm-sensor.co
 COMMON         0x00000000       0x10 stm-sensor.co
 .text          0x00000000        0x0 obj_mbxxx/symbols.o
 .data          0x00000000        0x0 obj_mbxxx/symbols.o
 .bss           0x00000000        0x0 obj_mbxxx/symbols.o
 .rodata        0x00000000        0xc obj_mbxxx/symbols.o
 .text          0x00000000        0x0 contiki-mbxxx.a(nullmac.o)
 .data          0x00000000        0x0 contiki-mbxxx.a(nullmac.o)
 .bss           0x00000000        0x0 contiki-mbxxx.a(nullmac.o)
 .text          0x00000000        0x0 contiki-mbxxx.a(sicslowmac.o)
 .data          0x00000000        0x0 contiki-mbxxx.a(sicslowmac.o)
 .text          0x00000000        0x0 contiki-mbxxx.a(process.o)
 .data          0x00000000        0x0 contiki-mbxxx.a(process.o)
 .text.process_nevents
                0x00000000       0x10 contiki-mbxxx.a(process.o)
 .text          0x00000000        0x0 contiki-mbxxx.a(etimer.o)
 .text.etimer_adjust
                0x00000000        0xa contiki-mbxxx.a(etimer.o)
 .text.etimer_start_time
                0x00000000        0x4 contiki-mbxxx.a(etimer.o)
 .text.etimer_next_expiration_time
                0x00000000       0x14 contiki-mbxxx.a(etimer.o)
 .text          0x00000000        0x0 contiki-mbxxx.a(random.o)
 .data          0x00000000        0x0 contiki-mbxxx.a(random.o)
 .bss           0x00000000        0x0 contiki-mbxxx.a(random.o)
 .text.random_init
                0x00000000        0x4 contiki-mbxxx.a(random.o)
 .text          0x00000000        0x0 contiki-mbxxx.a(packetbuf.o)
 .data          0x00000000        0x0 contiki-mbxxx.a(packetbuf.o)
 .text.packetbuf_clear_hdr
                0x00000000        0xc contiki-mbxxx.a(packetbuf.o)
 .text.packetbuf_hdr_remove
                0x00000000       0x10 contiki-mbxxx.a(packetbuf.o)
 .text.packetbuf_compact
                0x00000000       0x54 contiki-mbxxx.a(packetbuf.o)
 .text.packetbuf_reference
                0x00000000       0x1c contiki-mbxxx.a(packetbuf.o)
 .text          0x00000000        0x0 contiki-mbxxx.a(queuebuf.o)
 .text.queuebuf_init
                0x00000000       0x24 contiki-mbxxx.a(queuebuf.o)
 .text.queuebuf_update_attr_from_packetbuf
                0x00000000       0x14 contiki-mbxxx.a(queuebuf.o)
 .text.queuebuf_dataptr
                0x00000000       0x30 contiki-mbxxx.a(queuebuf.o)
 .text.queuebuf_datalen
                0x00000000        0xa contiki-mbxxx.a(queuebuf.o)
 .text.queuebuf_addr
                0x00000000       0x12 contiki-mbxxx.a(queuebuf.o)
 .text.queuebuf_attr
                0x00000000       0x12 contiki-mbxxx.a(queuebuf.o)
 .text.queuebuf_debug_print
                0x00000000        0x2 contiki-mbxxx.a(queuebuf.o)
 .text          0x00000000        0x0 contiki-mbxxx.a(sicslowpan.o)
 .data          0x00000000        0x0 contiki-mbxxx.a(sicslowpan.o)
 .text.rime_sniffer_add
                0x00000000        0xc contiki-mbxxx.a(sicslowpan.o)
 .text.rime_sniffer_remove
                0x00000000       0x10 contiki-mbxxx.a(sicslowpan.o)
 .text          0x00000000        0x0 contiki-mbxxx.a(tcpip.o)
 .text.tcp_unlisten
                0x00000000       0x48 contiki-mbxxx.a(tcpip.o)
 .text.tcp_listen
                0x00000000       0x40 contiki-mbxxx.a(tcpip.o)
 .text.tcp_attach
                0x00000000       0x10 contiki-mbxxx.a(tcpip.o)
 .text.udp_attach
                0x00000000       0x10 contiki-mbxxx.a(tcpip.o)
 .text.udp_broadcast_new
                0x00000000       0x40 contiki-mbxxx.a(tcpip.o)
 .text.tcpip_poll_udp
                0x00000000       0x10 contiki-mbxxx.a(tcpip.o)
 .text.tcpip_poll_tcp
                0x00000000       0x10 contiki-mbxxx.a(tcpip.o)
 .text.tcp_connect
                0x00000000       0x20 contiki-mbxxx.a(tcpip.o)
 .text          0x00000000        0x0 contiki-mbxxx.a(uip-debug.o)
 .data          0x00000000        0x0 contiki-mbxxx.a(uip-debug.o)
 .bss           0x00000000        0x0 contiki-mbxxx.a(uip-debug.o)
 .text          0x00000000        0x0 contiki-mbxxx.a(uip-ds6-route.o)
 .text.uip_ds6_notification_add
                0x00000000       0x18 contiki-mbxxx.a(uip-ds6-route.o)
 .text.uip_ds6_notification_rm
                0x00000000        0xc contiki-mbxxx.a(uip-ds6-route.o)
 .text.uip_ds6_route_num_routes
                0x00000000        0xc contiki-mbxxx.a(uip-ds6-route.o)
 .text.uip_ds6_route_rm_by_nexthop
                0x00000000       0x1c contiki-mbxxx.a(uip-ds6-route.o)
 .text          0x00000000        0x0 contiki-mbxxx.a(uip-ds6-nbr.o)
 .text.uip_ds6_nbr_get_ipaddr
                0x00000000        0x2 contiki-mbxxx.a(uip-ds6-nbr.o)
 .text.uip_ds6_nbr_num
                0x00000000       0x28 contiki-mbxxx.a(uip-ds6-nbr.o)
 .text.uip_ds6_get_least_lifetime_neighbor
                0x00000000       0x48 contiki-mbxxx.a(uip-ds6-nbr.o)
 .text          0x00000000        0x0 contiki-mbxxx.a(uip-ds6.o)
 .data          0x00000000        0x0 contiki-mbxxx.a(uip-ds6.o)
 .text.uip_ds6_prefix_rm
                0x00000000        0x8 contiki-mbxxx.a(uip-ds6.o)
 .text.uip_ds6_prefix_lookup
                0x00000000       0x28 contiki-mbxxx.a(uip-ds6.o)
 .text.uip_ds6_get_global
                0x00000000       0x48 contiki-mbxxx.a(uip-ds6.o)
 .text.uip_ds6_aaddr_add
                0x00000000       0x48 contiki-mbxxx.a(uip-ds6.o)
 .text.uip_ds6_aaddr_rm
                0x00000000        0x8 contiki-mbxxx.a(uip-ds6.o)
 .text.uip_ds6_aaddr_lookup
                0x00000000       0x2c contiki-mbxxx.a(uip-ds6.o)
 .text          0x00000000        0x0 contiki-mbxxx.a(uip-nd6.o)
 .data          0x00000000        0x0 contiki-mbxxx.a(uip-nd6.o)
 .text          0x00000000        0x0 contiki-mbxxx.a(uip-udp-packet.)
 .data          0x00000000        0x0 contiki-mbxxx.a(uip-udp-packet.)
 .bss           0x00000000        0x0 contiki-mbxxx.a(uip-udp-packet.)
 .text          0x00000000        0x0 contiki-mbxxx.a(uip6.o)
 .data          0x00000000        0x0 contiki-mbxxx.a(uip6.o)
 .text.uip_listen
                0x00000000       0x2c contiki-mbxxx.a(uip6.o)
 .text.uip_connect
                0x00000000       0xf8 contiki-mbxxx.a(uip6.o)
 .text.uip_ipchksum
                0x00000000       0x20 contiki-mbxxx.a(uip6.o)
 .text.uip_chksum
                0x00000000       0x16 contiki-mbxxx.a(uip6.o)
 .text.uip_send
                0x00000000       0x34 contiki-mbxxx.a(uip6.o)
 .text          0x00000000        0x0 contiki-mbxxx.a(button-sensor.o)
 .data          0x00000000        0x0 contiki-mbxxx.a(button-sensor.o)
 .text          0x00000000        0x0 contiki-mbxxx.a(temperature-sen)
 .data          0x00000000        0x0 contiki-mbxxx.a(temperature-sen)
 .text          0x00000000        0x0 contiki-mbxxx.a(mems.o)
 .data          0x00000000        0x0 contiki-mbxxx.a(mems.o)
 .text          0x00000000        0x0 contiki-mbxxx.a(board.o)
 .data          0x00000000        0x0 contiki-mbxxx.a(board.o)
 .text.halBoardGetDescription
                0x00000000        0xc contiki-mbxxx.a(board.o)
 .text.halBoardPowerDown
                0x00000000       0xc0 contiki-mbxxx.a(board.o)
 .text          0x00000000        0x0 contiki-mbxxx.a(leds.o)
 .data          0x00000000        0x0 contiki-mbxxx.a(leds.o)
 .text.leds_get
                0x00000000        0x4 contiki-mbxxx.a(leds.o)
 .text.leds_invert
                0x00000000       0x14 contiki-mbxxx.a(leds.o)
 .text.leds_toggle
                0x00000000        0x4 contiki-mbxxx.a(leds.o)
 .text.leds_blink
                0x00000000       0x2c contiki-mbxxx.a(leds.o)
 .text          0x00000000        0x0 contiki-mbxxx.a(clock.o)
 .text.clock_delay
                0x00000000       0x12 contiki-mbxxx.a(clock.o)
 .text          0x00000000        0x0 contiki-mbxxx.a(watchdog.o)
 .data          0x00000000        0x0 contiki-mbxxx.a(watchdog.o)
 .bss           0x00000000        0x0 contiki-mbxxx.a(watchdog.o)
 .text.watchdog_init
                0x00000000        0x2 contiki-mbxxx.a(watchdog.o)
 .text.watchdog_stop
                0x00000000        0x6 contiki-mbxxx.a(watchdog.o)
 .text.watchdog_reboot
                0x00000000        0x4 contiki-mbxxx.a(watchdog.o)
 .text          0x00000000        0x0 contiki-mbxxx.a(uart1-putchar.o)
 .data          0x00000000        0x0 contiki-mbxxx.a(uart1-putchar.o)
 .bss           0x00000000        0x0 contiki-mbxxx.a(uart1-putchar.o)
 .text._write   0x00000000       0x5c contiki-mbxxx.a(uart1-putchar.o)
 .text._read    0x00000000        0x4 contiki-mbxxx.a(uart1-putchar.o)
 .text          0x00000000        0x0 contiki-mbxxx.a(stm32w-radio.o)
 .text.stm32w_radio_set_promiscous
                0x00000000        0xc contiki-mbxxx.a(stm32w-radio.o)
 .text.stm32w_radio_set_channel
                0x00000000        0xe contiki-mbxxx.a(stm32w-radio.o)
 .text.stm32w_radio_is_on
                0x00000000       0x14 contiki-mbxxx.a(stm32w-radio.o)
 .text.ST_RadioTxAckIsrCallback
                0x00000000       0x10 contiki-mbxxx.a(stm32w-radio.o)
 .text.last_packet_rssi
                0x00000000        0xc contiki-mbxxx.a(stm32w-radio.o)
 .text          0x00000000        0x0 contiki-mbxxx.a(stm32w-systick.)
 .data          0x00000000        0x0 contiki-mbxxx.a(stm32w-systick.)
 .bss           0x00000000        0x0 contiki-mbxxx.a(stm32w-systick.)
 .text.SysTick_GetCounter
                0x00000000        0xc contiki-mbxxx.a(stm32w-systick.)
 .text.SysTick_GetFlagStatus
                0x00000000       0x1c contiki-mbxxx.a(stm32w-systick.)
 .text          0x00000000        0x0 contiki-mbxxx.a(uip-arch.o)
 .data          0x00000000        0x0 contiki-mbxxx.a(uip-arch.o)
 .bss           0x00000000        0x0 contiki-mbxxx.a(uip-arch.o)
 .text          0x00000000        0x0 contiki-mbxxx.a(rtimer-arch.o)
 .data          0x00000000        0x0 contiki-mbxxx.a(rtimer-arch.o)
 .text.rtimer_arch_disable_irq
                0x00000000       0x24 contiki-mbxxx.a(rtimer-arch.o)
 .text.rtimer_arch_enable_irq
                0x00000000       0x14 contiki-mbxxx.a(rtimer-arch.o)
 .text          0x00000000        0x0 contiki-mbxxx.a(adc.o)
 .data          0x00000000        0x0 contiki-mbxxx.a(adc.o)
 .text.halAdcSetClock
                0x00000000       0x1c contiki-mbxxx.a(adc.o)
 .text.halAdcGetClock
                0x00000000       0x10 contiki-mbxxx.a(adc.o)
 .text          0x00000000        0x0 contiki-mbxxx.a(micro.o)
 .bss           0x00000000        0x0 contiki-mbxxx.a(micro.o)
 .text.halReboot
                0x00000000       0x24 contiki-mbxxx.a(micro.o)
 .text.halPowerDown
                0x00000000        0x4 contiki-mbxxx.a(micro.o)
 .text.halCommonSeedRandom
                0x00000000       0x24 contiki-mbxxx.a(micro.o)
 .text.halCommonMemSet
                0x00000000        0x4 contiki-mbxxx.a(micro.o)
 .text.halBootloaderStart
                0x00000000       0x88 contiki-mbxxx.a(micro.o)
 .text          0x00000000        0x0 contiki-mbxxx.a(sleep.o)
 .data          0x00000000        0x0 contiki-mbxxx.a(sleep.o)
 .text.halGetWakeInfo
                0x00000000        0xc contiki-mbxxx.a(sleep.o)
 .text          0x00000000        0x0 contiki-mbxxx.a(micro-common.o)
 .data          0x00000000        0x0 contiki-mbxxx.a(micro-common.o)
 .bss           0x00000000        0x0 contiki-mbxxx.a(micro-common.o)
 .text          0x00000000        0x0 contiki-mbxxx.a(micro-common-in)
 .data          0x00000000        0x0 contiki-mbxxx.a(micro-common-in)
 .bss           0x00000000        0x0 contiki-mbxxx.a(micro-common-in)
 .text.halCommonDelayMilliseconds
                0x00000000       0x1e contiki-mbxxx.a(micro-common-in)
 .text          0x00000000        0x0 contiki-mbxxx.a(clocks.o)
 .bss           0x00000000        0x0 contiki-mbxxx.a(clocks.o)
 .text.halCommonCheckXtalBiasTrim
                0x00000000       0x50 contiki-mbxxx.a(clocks.o)
 .text          0x00000000        0x0 contiki-mbxxx.a(mfg-token.o)
 .data          0x00000000        0x0 contiki-mbxxx.a(mfg-token.o)
 .bss           0x00000000        0x0 contiki-mbxxx.a(mfg-token.o)
 .text.halInternalSetMfgTokenData
                0x00000000       0x50 contiki-mbxxx.a(mfg-token.o)
 .text          0x00000000        0x0 contiki-mbxxx.a(flash.o)
 .data          0x00000000        0x0 contiki-mbxxx.a(flash.o)
 .text.halFlashEraseIsActive
                0x00000000        0xc contiki-mbxxx.a(flash.o)
 .text.halInternalCibOptionByteWrite
                0x00000000       0x2c contiki-mbxxx.a(flash.o)
 .text          0x00000000        0x0 contiki-mbxxx.a(rand.o)
 .data          0x00000000        0x0 contiki-mbxxx.a(rand.o)
 .bss           0x00000000        0x0 contiki-mbxxx.a(rand.o)
 .text.srand    0x00000000        0x2 contiki-mbxxx.a(rand.o)
 .text          0x00000000        0x0 contiki-mbxxx.a(crt-stm32w108.o)
 .data          0x00000000        0x0 contiki-mbxxx.a(crt-stm32w108.o)
 .bss           0x00000000        0x0 contiki-mbxxx.a(crt-stm32w108.o)
 .text._sbrk    0x00000000        0x4 contiki-mbxxx.a(crt-stm32w108.o)
 .text._lseek   0x00000000        0x4 contiki-mbxxx.a(crt-stm32w108.o)
 .text._close   0x00000000        0x6 contiki-mbxxx.a(crt-stm32w108.o)
 .text._exit    0x00000000        0x2 contiki-mbxxx.a(crt-stm32w108.o)
 .text._kill    0x00000000        0x6 contiki-mbxxx.a(crt-stm32w108.o)
 .text._fstat   0x00000000        0xa contiki-mbxxx.a(crt-stm32w108.o)
 .text._isatty  0x00000000        0x4 contiki-mbxxx.a(crt-stm32w108.o)
 .text._getpid  0x00000000        0x6 contiki-mbxxx.a(crt-stm32w108.o)
 .text._open    0x00000000        0xa contiki-mbxxx.a(crt-stm32w108.o)
 .text._fflush_r
                0x00000000        0x4 contiki-mbxxx.a(crt-stm32w108.o)
 .data          0x00000000        0x0 contiki-mbxxx.a(spmr.o)
 .bss           0x00000000        0x0 contiki-mbxxx.a(spmr.o)
 .data          0x00000000        0x0 contiki-mbxxx.a(context-switch.)
 .text          0x00000000        0x0 contiki-mbxxx.a(rimeaddr.o)
 .data          0x00000000        0x0 contiki-mbxxx.a(rimeaddr.o)
 .bss           0x00000000        0x0 contiki-mbxxx.a(rimeaddr.o)
 .text          0x00000000        0x0 contiki-mbxxx.a(frame802154.o)
 .data          0x00000000        0x0 contiki-mbxxx.a(frame802154.o)
 .bss           0x00000000        0x0 contiki-mbxxx.a(frame802154.o)
 .text          0x00000000        0x0 contiki-mbxxx.a(framer-802154.o)
 .data          0x00000000        0x0 contiki-mbxxx.a(framer-802154.o)
 .text          0x00000000        0x0 contiki-mbxxx.a(rpl.o)
 .data          0x00000000        0x0 contiki-mbxxx.a(rpl.o)
 .bss           0x00000000        0x0 contiki-mbxxx.a(rpl.o)
 .text          0x00000000        0x0 contiki-mbxxx.a(rpl-dag.o)
 .text.rpl_get_parent_rank
                0x00000000       0x14 contiki-mbxxx.a(rpl-dag.o)
 .text.rpl_get_parent_link_metric
                0x00000000       0x14 contiki-mbxxx.a(rpl-dag.o)
 .text.rpl_set_default_instance
                0x00000000        0xc contiki-mbxxx.a(rpl-dag.o)
 .text.rpl_set_root
                0x00000000       0xe0 contiki-mbxxx.a(rpl-dag.o)
 .text          0x00000000        0x0 contiki-mbxxx.a(rpl-icmp6.o)
 .bss           0x00000000        0x0 contiki-mbxxx.a(rpl-icmp6.o)
 .text          0x00000000        0x0 contiki-mbxxx.a(rpl-timers.o)
 .data          0x00000000        0x0 contiki-mbxxx.a(rpl-timers.o)
 .text          0x00000000        0x0 contiki-mbxxx.a(rpl-mrhof.o)
 .bss           0x00000000        0x0 contiki-mbxxx.a(rpl-mrhof.o)
 .text          0x00000000        0x0 contiki-mbxxx.a(rpl-ext-header.)
 .data          0x00000000        0x0 contiki-mbxxx.a(rpl-ext-header.)
 .bss           0x00000000        0x0 contiki-mbxxx.a(rpl-ext-header.)
 .text.rpl_remove_header
                0x00000000       0x5c contiki-mbxxx.a(rpl-ext-header.)
 .text          0x00000000        0x0 contiki-mbxxx.a(memb.o)
 .data          0x00000000        0x0 contiki-mbxxx.a(memb.o)
 .bss           0x00000000        0x0 contiki-mbxxx.a(memb.o)
 .text          0x00000000        0x0 contiki-mbxxx.a(timer.o)
 .data          0x00000000        0x0 contiki-mbxxx.a(timer.o)
 .bss           0x00000000        0x0 contiki-mbxxx.a(timer.o)
 .text.timer_remaining
                0x00000000       0x10 contiki-mbxxx.a(timer.o)
 .text          0x00000000        0x0 contiki-mbxxx.a(list.o)
 .data          0x00000000        0x0 contiki-mbxxx.a(list.o)
 .bss           0x00000000        0x0 contiki-mbxxx.a(list.o)
 .text.list_copy
                0x00000000        0x6 contiki-mbxxx.a(list.o)
 .text.list_chop
                0x00000000       0x1e contiki-mbxxx.a(list.o)
 .text.list_pop
                0x00000000        0xc contiki-mbxxx.a(list.o)
 .text.list_insert
                0x00000000       0x10 contiki-mbxxx.a(list.o)
 .text          0x00000000        0x0 contiki-mbxxx.a(ctimer.o)
 .text.ctimer_restart
                0x00000000       0x3c contiki-mbxxx.a(ctimer.o)
 .text.ctimer_expired
                0x00000000       0x30 contiki-mbxxx.a(ctimer.o)
 .text          0x00000000        0x0 contiki-mbxxx.a(rtimer.o)
 .data          0x00000000        0x0 contiki-mbxxx.a(rtimer.o)
 .text.rtimer_set
                0x00000000       0x24 contiki-mbxxx.a(rtimer.o)
 .text          0x00000000        0x0 contiki-mbxxx.a(stimer.o)
 .data          0x00000000        0x0 contiki-mbxxx.a(stimer.o)
 .bss           0x00000000        0x0 contiki-mbxxx.a(stimer.o)
 .text.stimer_reset
                0x00000000        0xa contiki-mbxxx.a(stimer.o)
 .text.stimer_restart
                0x00000000        0xc contiki-mbxxx.a(stimer.o)
 .text.stimer_remaining
                0x00000000       0x10 contiki-mbxxx.a(stimer.o)
 .text.stimer_elapsed
                0x00000000        0xe contiki-mbxxx.a(stimer.o)
 .text          0x00000000        0x0 contiki-mbxxx.a(nbr-table.o)
 .text          0x00000000        0x0 contiki-mbxxx.a(uip-icmp6.o)
 .data          0x00000000        0x0 contiki-mbxxx.a(uip-icmp6.o)
 .text          0x00000000        0x0 contiki-mbxxx.a(sensors.o)
 .text.sensors_first
                0x00000000        0xc contiki-mbxxx.a(sensors.o)
 .text.sensors_next
                0x00000000       0x14 contiki-mbxxx.a(sensors.o)
 .text.sensors_find
                0x00000000       0x3c contiki-mbxxx.a(sensors.o)
 .text          0x00000000        0x0 contiki-mbxxx.a(contiki-main.o)
 .bss           0x00000000        0x0 contiki-mbxxx.a(contiki-main.o)
 .text          0x00000000        0x0 contiki-mbxxx.a(leds-arch.o)
 .data          0x00000000        0x0 contiki-mbxxx.a(leds-arch.o)
 .bss           0x00000000        0x0 contiki-mbxxx.a(leds-arch.o)
 .text.leds_arch_get
                0x00000000       0x3c contiki-mbxxx.a(leds-arch.o)
 .text          0x00000000        0x0 contiki-mbxxx.a(uart1.o)
 .data          0x00000000        0x0 contiki-mbxxx.a(uart1.o)
 .text          0x00000000        0x0 contiki-mbxxx.a(procinit.o)
 .data          0x00000000        0x0 contiki-mbxxx.a(procinit.o)
 .bss           0x00000000        0x0 contiki-mbxxx.a(procinit.o)
 .text          0x00000000        0x0 contiki-mbxxx.a(autostart.o)
 .data          0x00000000        0x0 contiki-mbxxx.a(autostart.o)
 .bss           0x00000000        0x0 contiki-mbxxx.a(autostart.o)
 .text.autostart_exit
                0x00000000       0x14 contiki-mbxxx.a(autostart.o)
 .text          0x00000000        0x0 contiki-mbxxx.a(serial-line.o)
 .text          0x00000000        0x0 contiki-mbxxx.a(energest.o)
 .data          0x00000000        0x0 contiki-mbxxx.a(energest.o)
 .bss           0x00000000        0x0 contiki-mbxxx.a(energest.o)
 .text.energest_type_set
                0x00000000        0x2 contiki-mbxxx.a(energest.o)
 .text.energest_type_time
                0x00000000        0x4 contiki-mbxxx.a(energest.o)
 .text.energest_flush
                0x00000000        0x2 contiki-mbxxx.a(energest.o)
 .text          0x00000000        0x0 contiki-mbxxx.a(ringbuf.o)
 .data          0x00000000        0x0 contiki-mbxxx.a(ringbuf.o)
 .bss           0x00000000        0x0 contiki-mbxxx.a(ringbuf.o)
 .text.ringbuf_size
                0x00000000        0x6 contiki-mbxxx.a(ringbuf.o)
 .text.ringbuf_elements
                0x00000000        0xe contiki-mbxxx.a(ringbuf.o)
 .text          0x00000000        0x0 contiki-mbxxx.a(netstack.o)
 .data          0x00000000        0x0 contiki-mbxxx.a(netstack.o)
 .bss           0x00000000        0x0 contiki-mbxxx.a(netstack.o)
 .text          0x00000000        0x0 contiki-mbxxx.a(contact-sensor.)
 .data          0x00000000        0x0 contiki-mbxxx.a(contact-sensor.)
 .bss           0x00000000        0x0 contiki-mbxxx.a(contact-sensor.)
 .text          0x00000000        0x0 ../../../cpu/stm32w108/simplemac/library/simplemac-library-gnu.a(phy-library-min.o)
 .data          0x00000000        0x0 ../../../cpu/stm32w108/simplemac/library/simplemac-library-gnu.a(phy-library-min.o)
 .bss           0x00000000        0x0 ../../../cpu/stm32w108/simplemac/library/simplemac-library-gnu.a(phy-library-min.o)
 .text.ST_RadioEnableMacTimerCompare
                0x00000000       0x1c ../../../cpu/stm32w108/simplemac/library/simplemac-library-gnu.a(phy-library-min.o)
 .text.ST_RadioMacTimerCompareEnabled
                0x00000000       0x10 ../../../cpu/stm32w108/simplemac/library/simplemac-library-gnu.a(phy-library-min.o)
 .text.ST_RadioSetMacTimerCompare
                0x00000000       0x14 ../../../cpu/stm32w108/simplemac/library/simplemac-library-gnu.a(phy-library-min.o)
 .text.ST_RadioGetMacTimerCompare
                0x00000000       0x14 ../../../cpu/stm32w108/simplemac/library/simplemac-library-gnu.a(phy-library-min.o)
 .text.stGetEui64
                0x00000000        0x8 ../../../cpu/stm32w108/simplemac/library/simplemac-library-gnu.a(phy-library-min.o)
 .text.ST_RadioReceiveCrcEnabled
                0x00000000        0x4 ../../../cpu/stm32w108/simplemac/library/simplemac-library-gnu.a(phy-library-min.o)
 .text.ST_RadioGetPowerMode
                0x00000000        0x4 ../../../cpu/stm32w108/simplemac/library/simplemac-library-gnu.a(phy-library-min.o)
 .text.ST_RadioSetPowerMode
                0x00000000        0x4 ../../../cpu/stm32w108/simplemac/library/simplemac-library-gnu.a(phy-library-min.o)
 .text.ST_RadioPacketTraceEnabled
                0x00000000        0x4 ../../../cpu/stm32w108/simplemac/library/simplemac-library-gnu.a(phy-library-min.o)
 .text.ST_RadioEnablePacketTrace
                0x00000000        0x4 ../../../cpu/stm32w108/simplemac/library/simplemac-library-gnu.a(phy-library-min.o)
 .text.ST_RadioEnergyDetection
                0x00000000        0x4 ../../../cpu/stm32w108/simplemac/library/simplemac-library-gnu.a(phy-library-min.o)
 .text.ST_RadioStopTransmitStream
                0x00000000        0x4 ../../../cpu/stm32w108/simplemac/library/simplemac-library-gnu.a(phy-library-min.o)
 .text.ST_RadioStartTransmitStream
                0x00000000        0x4 ../../../cpu/stm32w108/simplemac/library/simplemac-library-gnu.a(phy-library-min.o)
 .text.ST_RadioStopTransmitTone
                0x00000000        0x4 ../../../cpu/stm32w108/simplemac/library/simplemac-library-gnu.a(phy-library-min.o)
 .text.ST_RadioStartTransmitTone
                0x00000000        0x4 ../../../cpu/stm32w108/simplemac/library/simplemac-library-gnu.a(phy-library-min.o)
 .text.ST_AesEncrypt
                0x00000000        0x4 ../../../cpu/stm32w108/simplemac/library/simplemac-library-gnu.a(phy-library-min.o)
 .text.ST_AesGetKey
                0x00000000        0x4 ../../../cpu/stm32w108/simplemac/library/simplemac-library-gnu.a(phy-library-min.o)
 .text.ST_AesSetKey
                0x00000000        0x4 ../../../cpu/stm32w108/simplemac/library/simplemac-library-gnu.a(phy-library-min.o)
 .text.ST_RadioGetMacTimer
                0x00000000        0x4 ../../../cpu/stm32w108/simplemac/library/simplemac-library-gnu.a(phy-library-min.o)
 .text.ST_RadioEnableReceiveCrc
                0x00000000        0x4 ../../../cpu/stm32w108/simplemac/library/simplemac-library-gnu.a(phy-library-min.o)
 .text.ST_RadioOverflowNotificationEnabled
                0x00000000        0x4 ../../../cpu/stm32w108/simplemac/library/simplemac-library-gnu.a(phy-library-min.o)
 .text.ST_RadioEnableOverflowNotification
                0x00000000        0x4 ../../../cpu/stm32w108/simplemac/library/simplemac-library-gnu.a(phy-library-min.o)
 .text.ST_RadioDeviceIsCoordinator
                0x00000000        0x4 ../../../cpu/stm32w108/simplemac/library/simplemac-library-gnu.a(phy-library-min.o)
 .text.ST_RadioSetCoordinator
                0x00000000        0x4 ../../../cpu/stm32w108/simplemac/library/simplemac-library-gnu.a(phy-library-min.o)
 .text.ST_RadioGetPanId
                0x00000000        0x4 ../../../cpu/stm32w108/simplemac/library/simplemac-library-gnu.a(phy-library-min.o)
 .text.ST_RadioGetNodeId
                0x00000000        0x4 ../../../cpu/stm32w108/simplemac/library/simplemac-library-gnu.a(phy-library-min.o)
 .text.ST_RadioSetNodeId
                0x00000000        0x4 ../../../cpu/stm32w108/simplemac/library/simplemac-library-gnu.a(phy-library-min.o)
 .text.ST_RadioAutoAckEnabled
                0x00000000        0x4 ../../../cpu/stm32w108/simplemac/library/simplemac-library-gnu.a(phy-library-min.o)
 .text.ST_RadioAddressFilteringEnabled
                0x00000000        0x4 ../../../cpu/stm32w108/simplemac/library/simplemac-library-gnu.a(phy-library-min.o)
 .text.ST_RadioGetPower
                0x00000000        0x4 ../../../cpu/stm32w108/simplemac/library/simplemac-library-gnu.a(phy-library-min.o)
 .text.ST_RadioSetPower
                0x00000000        0x4 ../../../cpu/stm32w108/simplemac/library/simplemac-library-gnu.a(phy-library-min.o)
 .text.ST_RadioSfdSentNotificationEnabled
                0x00000000        0x4 ../../../cpu/stm32w108/simplemac/library/simplemac-library-gnu.a(phy-library-min.o)
 .text.ST_RadioEnableSfdSentNotification
                0x00000000        0x4 ../../../cpu/stm32w108/simplemac/library/simplemac-library-gnu.a(phy-library-min.o)
 .text.ST_RadioGetEdCcaThreshold
                0x00000000        0x4 ../../../cpu/stm32w108/simplemac/library/simplemac-library-gnu.a(phy-library-min.o)
 .text.ST_RadioCalibrateCurrentChannel
                0x00000000        0x4 ../../../cpu/stm32w108/simplemac/library/simplemac-library-gnu.a(phy-library-min.o)
 .text.ST_RadioCheckRadio
                0x00000000        0x4 ../../../cpu/stm32w108/simplemac/library/simplemac-library-gnu.a(phy-library-min.o)
 .text.ST_RadioSetChannelAndForceCalibration
                0x00000000        0x4 ../../../cpu/stm32w108/simplemac/library/simplemac-library-gnu.a(phy-library-min.o)
 .text.ST_RadioGetChannel
                0x00000000        0x4 ../../../cpu/stm32w108/simplemac/library/simplemac-library-gnu.a(phy-library-min.o)
 .text          0x00000000        0x0 ../../../cpu/stm32w108/simplemac/library/simplemac-library-gnu.a(aes-min.o)
 .data          0x00000000        0x0 ../../../cpu/stm32w108/simplemac/library/simplemac-library-gnu.a(aes-min.o)
 .bss           0x00000000        0x0 ../../../cpu/stm32w108/simplemac/library/simplemac-library-gnu.a(aes-min.o)
 .text.stmSecurityHardwareInit
                0x00000000        0x2 ../../../cpu/stm32w108/simplemac/library/simplemac-library-gnu.a(aes-min.o)
 .text          0x00000000        0x0 ../../../cpu/stm32w108/simplemac/library/simplemac-library-gnu.a(eui64-min.o)
 .data          0x00000000        0x0 ../../../cpu/stm32w108/simplemac/library/simplemac-library-gnu.a(eui64-min.o)
 .bss           0x00000000        0x0 ../../../cpu/stm32w108/simplemac/library/simplemac-library-gnu.a(eui64-min.o)
 .text          0x00000000        0x0 ../../../cpu/stm32w108/simplemac/library/simplemac-library-gnu.a(misc-min.o)
 .data          0x00000000        0x0 ../../../cpu/stm32w108/simplemac/library/simplemac-library-gnu.a(misc-min.o)
 .bss           0x00000000        0x0 ../../../cpu/stm32w108/simplemac/library/simplemac-library-gnu.a(misc-min.o)
 .text          0x00000000        0x0 ../../../cpu/stm32w108/simplemac/library/simplemac-library-gnu.a(phy-min.o)
 .data          0x00000000        0x0 ../../../cpu/stm32w108/simplemac/library/simplemac-library-gnu.a(phy-min.o)
 .bss           0x00000000        0x0 ../../../cpu/stm32w108/simplemac/library/simplemac-library-gnu.a(phy-min.o)
 .text.stmRadioCheckRadio
                0x00000000       0x2c ../../../cpu/stm32w108/simplemac/library/simplemac-library-gnu.a(phy-min.o)
 .text          0x00000000        0x0 ../../../cpu/stm32w108/simplemac/library/simplemac-library-gnu.a(analogue-min.o)
 .data          0x00000000        0x0 ../../../cpu/stm32w108/simplemac/library/simplemac-library-gnu.a(analogue-min.o)
 .bss           0x00000000        0x0 ../../../cpu/stm32w108/simplemac/library/simplemac-library-gnu.a(analogue-min.o)
 .text.stGetRadioChannel
                0x00000000        0xc ../../../cpu/stm32w108/simplemac/library/simplemac-library-gnu.a(analogue-min.o)
 .text.stGetRadioPower
                0x00000000        0xc ../../../cpu/stm32w108/simplemac/library/simplemac-library-gnu.a(analogue-min.o)
 .text.stmRadioSetChannelAndForceCalibration
                0x00000000       0x50 ../../../cpu/stm32w108/simplemac/library/simplemac-library-gnu.a(analogue-min.o)
 .text.stCalibrateCurrentChannel
                0x00000000       0x24 ../../../cpu/stm32w108/simplemac/library/simplemac-library-gnu.a(analogue-min.o)
 .text.stMeasureVddSlow
                0x00000000       0xa4 ../../../cpu/stm32w108/simplemac/library/simplemac-library-gnu.a(analogue-min.o)
 .text          0x00000000        0x0 ../../../cpu/stm32w108/simplemac/library/simplemac-library-gnu.a(analogue-cell-bias-min.o)
 .data          0x00000000        0x0 ../../../cpu/stm32w108/simplemac/library/simplemac-library-gnu.a(analogue-cell-bias-min.o)
 .bss           0x00000000        0x0 ../../../cpu/stm32w108/simplemac/library/simplemac-library-gnu.a(analogue-cell-bias-min.o)
 .rodata.cellBiasRegI
                0x00000000       0x58 ../../../cpu/stm32w108/simplemac/library/simplemac-library-gnu.a(analogue-cell-bias-min.o)
 .rodata.cellBiasRegV
                0x00000000       0x30 ../../../cpu/stm32w108/simplemac/library/simplemac-library-gnu.a(analogue-cell-bias-min.o)
 .text          0x00000000        0x0 ../../../cpu/stm32w108/simplemac/library/simplemac-library-gnu.a(analogue-filter-min.o)
 .data          0x00000000        0x0 ../../../cpu/stm32w108/simplemac/library/simplemac-library-gnu.a(analogue-filter-min.o)
 .bss           0x00000000        0x0 ../../../cpu/stm32w108/simplemac/library/simplemac-library-gnu.a(analogue-filter-min.o)
 .bss.filterForceReCal
                0x00000000        0x2 ../../../cpu/stm32w108/simplemac/library/simplemac-library-gnu.a(analogue-filter-min.o)
 .text          0x00000000        0x0 ../../../cpu/stm32w108/simplemac/library/simplemac-library-gnu.a(analogue-lna-min.o)
 .data          0x00000000        0x0 ../../../cpu/stm32w108/simplemac/library/simplemac-library-gnu.a(analogue-lna-min.o)
 .bss           0x00000000        0x0 ../../../cpu/stm32w108/simplemac/library/simplemac-library-gnu.a(analogue-lna-min.o)
 .text          0x00000000        0x0 ../../../cpu/stm32w108/simplemac/library/simplemac-library-gnu.a(analogue-mod-dac-min.o)
 .data          0x00000000        0x0 ../../../cpu/stm32w108/simplemac/library/simplemac-library-gnu.a(analogue-mod-dac-min.o)
 .bss           0x00000000        0x0 ../../../cpu/stm32w108/simplemac/library/simplemac-library-gnu.a(analogue-mod-dac-min.o)
 .text          0x00000000        0x0 ../../../cpu/stm32w108/simplemac/library/simplemac-library-gnu.a(analogue-vco-min.o)
 .data          0x00000000        0x0 ../../../cpu/stm32w108/simplemac/library/simplemac-library-gnu.a(analogue-vco-min.o)
 .bss           0x00000000        0x0 ../../../cpu/stm32w108/simplemac/library/simplemac-library-gnu.a(analogue-vco-min.o)
 .text          0x00000000        0x0 ../../../cpu/stm32w108/simplemac/library/simplemac-library-gnu.a(phy-common-min.o)
 .data          0x00000000        0x0 ../../../cpu/stm32w108/simplemac/library/simplemac-library-gnu.a(phy-common-min.o)
 .bss           0x00000000        0x0 ../../../cpu/stm32w108/simplemac/library/simplemac-library-gnu.a(phy-common-min.o)
 .text.stmCostDivision
                0x00000000        0xc ../../../cpu/stm32w108/simplemac/library/simplemac-library-gnu.a(phy-common-min.o)
 .text.stmRadioCalculateLinkQuality
                0x00000000       0x14 ../../../cpu/stm32w108/simplemac/library/simplemac-library-gnu.a(phy-common-min.o)
 .text.stmRadioConvertRssiToEd
                0x00000000       0x22 ../../../cpu/stm32w108/simplemac/library/simplemac-library-gnu.a(phy-common-min.o)
 .text.stmRadioEnergyDetection
                0x00000000       0x20 ../../../cpu/stm32w108/simplemac/library/simplemac-library-gnu.a(phy-common-min.o)
 .text.stmRadioAddressMatchingEnabled
                0x00000000        0xc ../../../cpu/stm32w108/simplemac/library/simplemac-library-gnu.a(phy-common-min.o)
 .text.stmRadioAutoAckEnabled
                0x00000000        0xc ../../../cpu/stm32w108/simplemac/library/simplemac-library-gnu.a(phy-common-min.o)
 .text.stmPhyDeviceIsCoordinator
                0x00000000        0xc ../../../cpu/stm32w108/simplemac/library/simplemac-library-gnu.a(phy-common-min.o)
 .text.stGetNodeId
                0x00000000        0xc ../../../cpu/stm32w108/simplemac/library/simplemac-library-gnu.a(phy-common-min.o)
 .text.stGetPanId
                0x00000000        0xc ../../../cpu/stm32w108/simplemac/library/simplemac-library-gnu.a(phy-common-min.o)
 .text.stmStartTransmitStream
                0x00000000       0x18 ../../../cpu/stm32w108/simplemac/library/simplemac-library-gnu.a(phy-common-min.o)
 .text.stmStartTransmitTone
                0x00000000       0x6c ../../../cpu/stm32w108/simplemac/library/simplemac-library-gnu.a(phy-common-min.o)
 .text.stmRadioOverflowNotificationEnabled
                0x00000000        0xc ../../../cpu/stm32w108/simplemac/library/simplemac-library-gnu.a(phy-common-min.o)
 .text.stmRadioSfdSentNotificationEnabled
                0x00000000        0xc ../../../cpu/stm32w108/simplemac/library/simplemac-library-gnu.a(phy-common-min.o)
 .text.stmRadioPacketTraceEnabled
                0x00000000        0xc ../../../cpu/stm32w108/simplemac/library/simplemac-library-gnu.a(phy-common-min.o)
 .text.stmRadioGetEdCcaThreshold
                0x00000000        0xc ../../../cpu/stm32w108/simplemac/library/simplemac-library-gnu.a(phy-common-min.o)
 .text.stmStopTransmitStream
                0x00000000       0x1c ../../../cpu/stm32w108/simplemac/library/simplemac-library-gnu.a(phy-common-min.o)
 .text.stmStopTransmitTone
                0x00000000       0x54 ../../../cpu/stm32w108/simplemac/library/simplemac-library-gnu.a(phy-common-min.o)
 .text.stmExtraAckWorkaround
                0x00000000       0x50 ../../../cpu/stm32w108/simplemac/library/simplemac-library-gnu.a(phy-common-min.o)
 .text.stmPhyCancelTransmit
                0x00000000       0x16 ../../../cpu/stm32w108/simplemac/library/simplemac-library-gnu.a(phy-common-min.o)
 .rodata.stmCostDivisions
                0x00000000        0x8 ../../../cpu/stm32w108/simplemac/library/simplemac-library-gnu.a(phy-common-min.o)
 .bss.stmRadioTransmitInProgress
                0x00000000        0x1 ../../../cpu/stm32w108/simplemac/library/simplemac-library-gnu.a(phy-common-min.o)
 .bss.asFoundModEn
                0x00000000        0x2 ../../../cpu/stm32w108/simplemac/library/simplemac-library-gnu.a(phy-common-min.o)
 .bss.asFoundFixedCodeEn
                0x00000000        0x2 ../../../cpu/stm32w108/simplemac/library/simplemac-library-gnu.a(phy-common-min.o)
 .bss.asFoundAnEnTest
                0x00000000        0x2 ../../../cpu/stm32w108/simplemac/library/simplemac-library-gnu.a(phy-common-min.o)
 .text          0x00000000        0x0 ../../../cpu/stm32w108/lib/e_stdio_intonly_thumb2.a(_SP_printf.o)
 .data          0x00000000        0x0 ../../../cpu/stm32w108/lib/e_stdio_intonly_thumb2.a(_SP_printf.o)
 .bss           0x00000000        0x0 ../../../cpu/stm32w108/lib/e_stdio_intonly_thumb2.a(_SP_printf.o)
 .text          0x00000000        0x0 ../../../cpu/stm32w108/lib/e_stdio_intonly_thumb2.a(_SP_vfprintf.o)
 .data          0x00000000        0x0 ../../../cpu/stm32w108/lib/e_stdio_intonly_thumb2.a(_SP_vfprintf.o)
 .bss           0x00000000        0x0 ../../../cpu/stm32w108/lib/e_stdio_intonly_thumb2.a(_SP_vfprintf.o)
 .text          0x00000000        0x0 ../../../cpu/stm32w108/lib/e_stdio_intonly_thumb2.a(_SP_puts.o)
 .data          0x00000000        0x0 ../../../cpu/stm32w108/lib/e_stdio_intonly_thumb2.a(_SP_puts.o)
 .bss           0x00000000        0x0 ../../../cpu/stm32w108/lib/e_stdio_intonly_thumb2.a(_SP_puts.o)
 .text          0x00000000        0x0 ../../../cpu/stm32w108/lib/e_stdio_intonly_thumb2.a(small_wcsrtombs.o)
 .data          0x00000000        0x0 ../../../cpu/stm32w108/lib/e_stdio_intonly_thumb2.a(small_wcsrtombs.o)
 .bss           0x00000000        0x0 ../../../cpu/stm32w108/lib/e_stdio_intonly_thumb2.a(small_wcsrtombs.o)
 .text.wcsrtombs
                0x00000000       0x20 ../../../cpu/stm32w108/lib/e_stdio_intonly_thumb2.a(small_wcsrtombs.o)
 .text          0x00000000        0x0 ../../../cpu/stm32w108/lib/e_stdio_intonly_thumb2.a(small_wcrtomb.o)
 .data          0x00000000        0x0 ../../../cpu/stm32w108/lib/e_stdio_intonly_thumb2.a(small_wcrtomb.o)
 .bss           0x00000000        0x0 ../../../cpu/stm32w108/lib/e_stdio_intonly_thumb2.a(small_wcrtomb.o)
 .text.wcrtomb  0x00000000        0x4 ../../../cpu/stm32w108/lib/e_stdio_intonly_thumb2.a(small_wcrtomb.o)
 .text          0x00000000        0x0 contiki-mbxxx.a(nvm.o)
 .data          0x00000000        0x0 contiki-mbxxx.a(nvm.o)
 .bss           0x00000000        0x0 contiki-mbxxx.a(nvm.o)
 .text.halCommonGetAddressFromNvm
                0x00000000       0x5c contiki-mbxxx.a(nvm.o)
 .text          0x00000000        0x0 /home/prabha/Sourcery_G++_Lite/bin/../lib/gcc/arm-none-eabi/4.5.2/../../../../arm-none-eabi/lib/thumb2/libc.a(lib_a-impure.o)
 .bss           0x00000000        0x0 /home/prabha/Sourcery_G++_Lite/bin/../lib/gcc/arm-none-eabi/4.5.2/../../../../arm-none-eabi/lib/thumb2/libc.a(lib_a-impure.o)
 .rodata        0x00000000        0x4 /home/prabha/Sourcery_G++_Lite/bin/../lib/gcc/arm-none-eabi/4.5.2/../../../../arm-none-eabi/lib/thumb2/libc.a(lib_a-impure.o)
 .data          0x00000000        0x0 /home/prabha/Sourcery_G++_Lite/bin/../lib/gcc/arm-none-eabi/4.5.2/../../../../arm-none-eabi/lib/thumb2/libc.a(lib_a-memchr.o)
 .bss           0x00000000        0x0 /home/prabha/Sourcery_G++_Lite/bin/../lib/gcc/arm-none-eabi/4.5.2/../../../../arm-none-eabi/lib/thumb2/libc.a(lib_a-memchr.o)
 .data          0x00000000        0x0 /home/prabha/Sourcery_G++_Lite/bin/../lib/gcc/arm-none-eabi/4.5.2/../../../../arm-none-eabi/lib/thumb2/libc.a(lib_a-memcmp.o)
 .bss           0x00000000        0x0 /home/prabha/Sourcery_G++_Lite/bin/../lib/gcc/arm-none-eabi/4.5.2/../../../../arm-none-eabi/lib/thumb2/libc.a(lib_a-memcmp.o)
 .data          0x00000000        0x0 /home/prabha/Sourcery_G++_Lite/bin/../lib/gcc/arm-none-eabi/4.5.2/../../../../arm-none-eabi/lib/thumb2/libc.a(lib_a-memcpy.o)
 .bss           0x00000000        0x0 /home/prabha/Sourcery_G++_Lite/bin/../lib/gcc/arm-none-eabi/4.5.2/../../../../arm-none-eabi/lib/thumb2/libc.a(lib_a-memcpy.o)
 .data          0x00000000        0x0 /home/prabha/Sourcery_G++_Lite/bin/../lib/gcc/arm-none-eabi/4.5.2/../../../../arm-none-eabi/lib/thumb2/libc.a(lib_a-memmove.o)
 .bss           0x00000000        0x0 /home/prabha/Sourcery_G++_Lite/bin/../lib/gcc/arm-none-eabi/4.5.2/../../../../arm-none-eabi/lib/thumb2/libc.a(lib_a-memmove.o)
 .data          0x00000000        0x0 /home/prabha/Sourcery_G++_Lite/bin/../lib/gcc/arm-none-eabi/4.5.2/../../../../arm-none-eabi/lib/thumb2/libc.a(lib_a-memset.o)
 .bss           0x00000000        0x0 /home/prabha/Sourcery_G++_Lite/bin/../lib/gcc/arm-none-eabi/4.5.2/../../../../arm-none-eabi/lib/thumb2/libc.a(lib_a-memset.o)
 .data          0x00000000        0x0 /home/prabha/Sourcery_G++_Lite/bin/../lib/gcc/arm-none-eabi/4.5.2/../../../../arm-none-eabi/lib/thumb2/libc.a(lib_a-strcmp.o)
 .bss           0x00000000        0x0 /home/prabha/Sourcery_G++_Lite/bin/../lib/gcc/arm-none-eabi/4.5.2/../../../../arm-none-eabi/lib/thumb2/libc.a(lib_a-strcmp.o)
 .data          0x00000000        0x0 /home/prabha/Sourcery_G++_Lite/bin/../lib/gcc/arm-none-eabi/4.5.2/../../../../arm-none-eabi/lib/thumb2/libc.a(lib_a-strlen.o)
 .bss           0x00000000        0x0 /home/prabha/Sourcery_G++_Lite/bin/../lib/gcc/arm-none-eabi/4.5.2/../../../../arm-none-eabi/lib/thumb2/libc.a(lib_a-strlen.o)
 .text          0x00000000       0xac /home/prabha/Sourcery_G++_Lite/bin/../lib/gcc/arm-none-eabi/4.5.2/../../../../arm-none-eabi/lib/thumb2/libc.a(lib_a-strncmp.o)
 .data          0x00000000        0x0 /home/prabha/Sourcery_G++_Lite/bin/../lib/gcc/arm-none-eabi/4.5.2/../../../../arm-none-eabi/lib/thumb2/libc.a(lib_a-strncmp.o)
 .bss           0x00000000        0x0 /home/prabha/Sourcery_G++_Lite/bin/../lib/gcc/arm-none-eabi/4.5.2/../../../../arm-none-eabi/lib/thumb2/libc.a(lib_a-strncmp.o)

Memory Configuration

Name             Origin             Length             Attributes
RAM_region       0x20000000         0x00002000         xrw
ROM_region       0x08000000         0x00020000         xr
FIB_region       0x08040000         0x00000800         ar
*default*        0x00000000         0xffffffff

Linker script and memory map

                0x00003000                _BOOTLOADER_SIZE = 0x3000
                0x00000800                _NVM_size = 0x800
                0x00000500                __Stack_Size = 0x500
                0x00000500                PROVIDE (_Stack_Size, __Stack_Size)
                0x20000000                __Stack_Init = 0x20000000
                0x20000500                _estack = (__Stack_Init + __Stack_Size)
                0x20000000                PROVIDE (_Stack_Init, __Stack_Init)

.isr_vector     0x08000000       0x84
                0x08000000                . = ALIGN (0x4)
                0x08000000                __ApplicationFlashStart = .
 *(.isr_vector)
 .isr_vector    0x08000000       0x84 contiki-mbxxx.a(crt-stm32w108.o)
                0x08000000                g_pfnVectors
                0x08000084                . = ALIGN (0x4)

.flashtext      0x08000084        0x0
                0x08000084                . = ALIGN (0x4)
 *(.flashtext)
                0x08000084                . = ALIGN (0x4)

.text           0x08000084     0xc9f8
                0x08000084                . = ALIGN (0x4)
 *(.text)
 .text          0x08000084       0x50 contiki-mbxxx.a(spmr.o)
                0x08000084                _readBasePri
                0x0800008a                _writeBasePri
                0x08000090                _disableBasePri
                0x0800009c                _basePriIsDisabled
                0x080000aa                _enableBasePri
                0x080000b2                _setPriMask
                0x080000b6                _clearPriMask
                0x080000ba                _executeBarrierInstructions
 .text          0x080000d4       0x48 contiki-mbxxx.a(context-switch.)
                0x080000d4                PendSV_Handler
                0x080000d4                halPendSvIsr
                0x08000102                halTriggerContextRestore
                0x0800010e                halInternalIdleSleep
 .text          0x0800011c       0x8c /home/prabha/Sourcery_G++_Lite/bin/../lib/gcc/arm-none-eabi/4.5.2/../../../../arm-none-eabi/lib/thumb2/libc.a(lib_a-memchr.o)
                0x0800011c                memchr
 .text          0x080001a8       0x64 /home/prabha/Sourcery_G++_Lite/bin/../lib/gcc/arm-none-eabi/4.5.2/../../../../arm-none-eabi/lib/thumb2/libc.a(lib_a-memcmp.o)
                0x080001a8                memcmp
 .text          0x0800020c      0x150 /home/prabha/Sourcery_G++_Lite/bin/../lib/gcc/arm-none-eabi/4.5.2/../../../../arm-none-eabi/lib/thumb2/libc.a(lib_a-memcpy.o)
                0x0800020c                memcpy
 .text          0x0800035c       0xb4 /home/prabha/Sourcery_G++_Lite/bin/../lib/gcc/arm-none-eabi/4.5.2/../../../../arm-none-eabi/lib/thumb2/libc.a(lib_a-memmove.o)
                0x0800035c                memmove
 .text          0x08000410       0xb4 /home/prabha/Sourcery_G++_Lite/bin/../lib/gcc/arm-none-eabi/4.5.2/../../../../arm-none-eabi/lib/thumb2/libc.a(lib_a-memset.o)
                0x08000410                memset
 .text          0x080004c4      0x1dc /home/prabha/Sourcery_G++_Lite/bin/../lib/gcc/arm-none-eabi/4.5.2/../../../../arm-none-eabi/lib/thumb2/libc.a(lib_a-strcmp.o)
                0x080004c4                strcmp
 .text          0x080006a0       0x60 /home/prabha/Sourcery_G++_Lite/bin/../lib/gcc/arm-none-eabi/4.5.2/../../../../arm-none-eabi/lib/thumb2/libc.a(lib_a-strlen.o)
                0x080006a0                strlen
 *(.text.*)
 .text.status   0x08000700       0x24 stm-sensor.co
 .text.configure
                0x08000724       0x5e stm-sensor.co
 .text.value    0x08000782       0x44 stm-sensor.co
 *fill*         0x080007c6        0x2 00
 .text.send_packet.clone.0
                0x080007c8       0xa0 stm-sensor.co
 .text.read_temperature
                0x08000868       0x18 stm-sensor.co
                0x08000868                read_temperature
 .text.request_discovery
                0x08000880       0x24 stm-sensor.co
                0x08000880                request_discovery
 .text.process_thread_discovery_process
                0x080008a4       0x60 stm-sensor.co
 .text.request_sensors
                0x08000904       0x2c stm-sensor.co
                0x08000904                request_sensors
 .text.get_temperature
                0x08000930       0x40 stm-sensor.co
                0x08000930                get_temperature
 .text.get_accel
                0x08000970       0x80 stm-sensor.co
                0x08000970                get_accel
 .text.get_all_sensors
                0x080009f0       0x9c stm-sensor.co
                0x080009f0                get_all_sensors
 .text.process_thread_wsn_driver_process
                0x08000a8c      0x2a4 stm-sensor.co
 .text.send_packet
                0x08000d30       0x10 contiki-mbxxx.a(nullmac.o)
 .text.packet_input
                0x08000d40       0x10 contiki-mbxxx.a(nullmac.o)
 .text.on       0x08000d50       0x10 contiki-mbxxx.a(nullmac.o)
 .text.off      0x08000d60       0x10 contiki-mbxxx.a(nullmac.o)
 .text.channel_check_interval
                0x08000d70        0x4 contiki-mbxxx.a(nullmac.o)
 .text.init     0x08000d74        0x2 contiki-mbxxx.a(nullmac.o)
 *fill*         0x08000d76        0x2 00
 .text.on       0x08000d78       0x10 contiki-mbxxx.a(sicslowmac.o)
 .text.off      0x08000d88       0x18 contiki-mbxxx.a(sicslowmac.o)
 .text.channel_check_interval
                0x08000da0        0x4 contiki-mbxxx.a(sicslowmac.o)
 .text.input_packet
                0x08000da4       0x90 contiki-mbxxx.a(sicslowmac.o)
 .text.send_packet
                0x08000e34       0xf8 contiki-mbxxx.a(sicslowmac.o)
 .text.init     0x08000f2c       0x1c contiki-mbxxx.a(sicslowmac.o)
 .text.send_list
                0x08000f48       0x1c contiki-mbxxx.a(sicslowmac.o)
                0x08000f48                send_list
 .text.process_alloc_event
                0x08000f64       0x10 contiki-mbxxx.a(process.o)
                0x08000f64                process_alloc_event
 .text.process_init
                0x08000f74       0x18 contiki-mbxxx.a(process.o)
                0x08000f74                process_init
 .text.process_post
                0x08000f8c       0x30 contiki-mbxxx.a(process.o)
                0x08000f8c                process_post
 .text.process_poll
                0x08000fbc       0x1c contiki-mbxxx.a(process.o)
                0x08000fbc                process_poll
 .text.process_is_running
                0x08000fd8        0xa contiki-mbxxx.a(process.o)
                0x08000fd8                process_is_running
 *fill*         0x08000fe2        0x2 00
 .text.exit_process
                0x08000fe4       0x84 contiki-mbxxx.a(process.o)
 .text.call_process
                0x08001068       0x40 contiki-mbxxx.a(process.o)
 .text.process_post_synch
                0x080010a8       0x14 contiki-mbxxx.a(process.o)
                0x080010a8                process_post_synch
 .text.process_start
                0x080010bc       0x34 contiki-mbxxx.a(process.o)
                0x080010bc                process_start
 .text.do_poll  0x080010f0       0x2c contiki-mbxxx.a(process.o)
 .text.process_run
                0x0800111c       0x8c contiki-mbxxx.a(process.o)
                0x0800111c                process_run
 .text.process_exit
                0x080011a8        0xc contiki-mbxxx.a(process.o)
                0x080011a8                process_exit
 .text.update_time
                0x080011b4       0x3c contiki-mbxxx.a(etimer.o)
 .text.etimer_request_poll
                0x080011f0        0xc contiki-mbxxx.a(etimer.o)
                0x080011f0                etimer_request_poll
 .text.process_thread_etimer_process
                0x080011fc       0x9c contiki-mbxxx.a(etimer.o)
 .text.add_timer
                0x08001298       0x40 contiki-mbxxx.a(etimer.o)
 .text.etimer_set
                0x080012d8       0x12 contiki-mbxxx.a(etimer.o)
                0x080012d8                etimer_set
 .text.etimer_reset
                0x080012ea       0x12 contiki-mbxxx.a(etimer.o)
                0x080012ea                etimer_reset
 .text.etimer_restart
                0x080012fc       0x12 contiki-mbxxx.a(etimer.o)
                0x080012fc                etimer_restart
 .text.etimer_expired
                0x0800130e        0xc contiki-mbxxx.a(etimer.o)
                0x0800130e                etimer_expired
 .text.etimer_expiration_time
                0x0800131a        0x8 contiki-mbxxx.a(etimer.o)
                0x0800131a                etimer_expiration_time
 *fill*         0x08001322        0x2 00
 .text.etimer_pending
                0x08001324       0x10 contiki-mbxxx.a(etimer.o)
                0x08001324                etimer_pending
 .text.etimer_stop
                0x08001334       0x34 contiki-mbxxx.a(etimer.o)
                0x08001334                etimer_stop
 .text.random_rand
                0x08001368        0xa contiki-mbxxx.a(random.o)
                0x08001368                random_rand
 *fill*         0x08001372        0x2 00
 .text.packetbuf_copyto_hdr
                0x08001374       0x1c contiki-mbxxx.a(packetbuf.o)
                0x08001374                packetbuf_copyto_hdr
 .text.packetbuf_copyto
                0x08001390       0x44 contiki-mbxxx.a(packetbuf.o)
                0x08001390                packetbuf_copyto
 .text.packetbuf_hdrreduce
                0x080013d4       0x28 contiki-mbxxx.a(packetbuf.o)
                0x080013d4                packetbuf_hdrreduce
 .text.packetbuf_set_datalen
                0x080013fc        0xc contiki-mbxxx.a(packetbuf.o)
                0x080013fc                packetbuf_set_datalen
 .text.packetbuf_dataptr
                0x08001408       0x14 contiki-mbxxx.a(packetbuf.o)
                0x08001408                packetbuf_dataptr
 .text.packetbuf_hdrptr
                0x0800141c       0x10 contiki-mbxxx.a(packetbuf.o)
                0x0800141c                packetbuf_hdrptr
 .text.packetbuf_is_reference
                0x0800142c       0x18 contiki-mbxxx.a(packetbuf.o)
                0x0800142c                packetbuf_is_reference
 .text.packetbuf_reference_ptr
                0x08001444        0xc contiki-mbxxx.a(packetbuf.o)
                0x08001444                packetbuf_reference_ptr
 .text.packetbuf_datalen
                0x08001450        0xc contiki-mbxxx.a(packetbuf.o)
                0x08001450                packetbuf_datalen
 .text.packetbuf_hdrlen
                0x0800145c       0x10 contiki-mbxxx.a(packetbuf.o)
                0x0800145c                packetbuf_hdrlen
 .text.packetbuf_totlen
                0x0800146c       0x12 contiki-mbxxx.a(packetbuf.o)
                0x0800146c                packetbuf_totlen
 *fill*         0x0800147e        0x2 00
 .text.packetbuf_hdralloc
                0x08001480       0x2c contiki-mbxxx.a(packetbuf.o)
                0x08001480                packetbuf_hdralloc
 .text.packetbuf_attr_clear
                0x080014ac       0x34 contiki-mbxxx.a(packetbuf.o)
                0x080014ac                packetbuf_attr_clear
 .text.packetbuf_clear
                0x080014e0       0x20 contiki-mbxxx.a(packetbuf.o)
                0x080014e0                packetbuf_clear
 .text.packetbuf_copyfrom
                0x08001500       0x2c contiki-mbxxx.a(packetbuf.o)
                0x08001500                packetbuf_copyfrom
 .text.packetbuf_attr_copyto
                0x0800152c       0x30 contiki-mbxxx.a(packetbuf.o)
                0x0800152c                packetbuf_attr_copyto
 .text.packetbuf_attr_copyfrom
                0x0800155c       0x30 contiki-mbxxx.a(packetbuf.o)
                0x0800155c                packetbuf_attr_copyfrom
 .text.packetbuf_set_attr
                0x0800158c       0x10 contiki-mbxxx.a(packetbuf.o)
                0x0800158c                packetbuf_set_attr
 .text.packetbuf_attr
                0x0800159c        0xc contiki-mbxxx.a(packetbuf.o)
                0x0800159c                packetbuf_attr
 .text.packetbuf_set_addr
                0x080015a8       0x18 contiki-mbxxx.a(packetbuf.o)
                0x080015a8                packetbuf_set_addr
 .text.packetbuf_addr
                0x080015c0       0x10 contiki-mbxxx.a(packetbuf.o)
                0x080015c0                packetbuf_addr
 .text.queuebuf_load_to_ram
                0x080015d0        0x4 contiki-mbxxx.a(queuebuf.o)
 .text.queuebuf_new_from_packetbuf
                0x080015d4       0x6c contiki-mbxxx.a(queuebuf.o)
                0x080015d4                queuebuf_new_from_packetbuf
 .text.queuebuf_free
                0x08001640       0x40 contiki-mbxxx.a(queuebuf.o)
                0x08001640                queuebuf_free
 .text.queuebuf_to_packetbuf
                0x08001680       0x6c contiki-mbxxx.a(queuebuf.o)
                0x08001680                queuebuf_to_packetbuf
 .text.addr_context_lookup_by_number
                0x080016ec       0x38 contiki-mbxxx.a(sicslowpan.o)
 .text.compress_addr_64
                0x08001724       0x90 contiki-mbxxx.a(sicslowpan.o)
 .text.uncompress_addr
                0x080017b4       0x78 contiki-mbxxx.a(sicslowpan.o)
 .text.set_packet_attrs
                0x0800182c       0x44 contiki-mbxxx.a(sicslowpan.o)
 .text.input    0x08001870      0x548 contiki-mbxxx.a(sicslowpan.o)
 .text.sicslowpan_init
                0x08001db8       0x24 contiki-mbxxx.a(sicslowpan.o)
                0x08001db8                sicslowpan_init
 .text.addr_context_lookup_by_prefix
                0x08001ddc       0x48 contiki-mbxxx.a(sicslowpan.o)
 .text.send_packet
                0x08001e24       0x24 contiki-mbxxx.a(sicslowpan.o)
 .text.packet_sent
                0x08001e48       0x24 contiki-mbxxx.a(sicslowpan.o)
 .text.output   0x08001e6c      0x648 contiki-mbxxx.a(sicslowpan.o)
 .text.start_periodic_tcp_timer
                0x080024b4       0x1c contiki-mbxxx.a(tcpip.o)
 .text.tcpip_output
                0x080024d0       0x14 contiki-mbxxx.a(tcpip.o)
                0x080024d0                tcpip_output
 .text.tcpip_set_outputfunc
                0x080024e4        0xc contiki-mbxxx.a(tcpip.o)
                0x080024e4                tcpip_set_outputfunc
 .text.udp_new  0x080024f0       0x18 contiki-mbxxx.a(tcpip.o)
                0x080024f0                udp_new
 .text.tcpip_input
                0x08002508       0x28 contiki-mbxxx.a(tcpip.o)
                0x08002508                tcpip_input
 .text.tcpip_ipv6_output
                0x08002530      0x144 contiki-mbxxx.a(tcpip.o)
                0x08002530                tcpip_ipv6_output
 .text.process_thread_tcpip_process
                0x08002674      0x1ec contiki-mbxxx.a(tcpip.o)
 .text.tcpip_uipcall
                0x08002860       0x80 contiki-mbxxx.a(tcpip.o)
                0x08002860                tcpip_uipcall
 .text.uip_debug_ipaddr_print
                0x080028e0       0x68 contiki-mbxxx.a(uip-debug.o)
                0x080028e0                uip_debug_ipaddr_print
 .text.uip_debug_lladdr_print
                0x08002948       0x24 contiki-mbxxx.a(uip-debug.o)
                0x08002948                uip_debug_lladdr_print
 .text.call_route_callback
                0x0800296c       0x48 contiki-mbxxx.a(uip-ds6-route.o)
 .text.uip_ds6_route_init
                0x080029b4       0x3c contiki-mbxxx.a(uip-ds6-route.o)
                0x080029b4                uip_ds6_route_init
 .text.uip_ds6_route_nexthop
                0x080029f0       0x1c contiki-mbxxx.a(uip-ds6-route.o)
                0x080029f0                uip_ds6_route_nexthop
 .text.uip_ds6_route_head
                0x08002a0c       0x24 contiki-mbxxx.a(uip-ds6-route.o)
                0x08002a0c                uip_ds6_route_head
 .text.uip_ds6_route_next
                0x08002a30       0x2c contiki-mbxxx.a(uip-ds6-route.o)
                0x08002a30                uip_ds6_route_next
 .text.uip_ds6_route_lookup
                0x08002a5c       0x42 contiki-mbxxx.a(uip-ds6-route.o)
                0x08002a5c                uip_ds6_route_lookup
 *fill*         0x08002a9e        0x2 00
 .text.uip_ds6_route_add
                0x08002aa0       0xac contiki-mbxxx.a(uip-ds6-route.o)
                0x08002aa0                uip_ds6_route_add
 .text.uip_ds6_route_rm
                0x08002b4c       0x60 contiki-mbxxx.a(uip-ds6-route.o)
                0x08002b4c                uip_ds6_route_rm
 .text.rm_routelist
                0x08002bac       0x2c contiki-mbxxx.a(uip-ds6-route.o)
 .text.rm_routelist_callback
                0x08002bd8        0x4 contiki-mbxxx.a(uip-ds6-route.o)
 .text.uip_ds6_defrt_rm
                0x08002bdc       0x44 contiki-mbxxx.a(uip-ds6-route.o)
                0x08002bdc                uip_ds6_defrt_rm
 .text.uip_ds6_defrt_lookup
                0x08002c20       0x2c contiki-mbxxx.a(uip-ds6-route.o)
                0x08002c20                uip_ds6_defrt_lookup
 .text.uip_ds6_defrt_add
                0x08002c4c       0x60 contiki-mbxxx.a(uip-ds6-route.o)
                0x08002c4c                uip_ds6_defrt_add
 .text.uip_ds6_defrt_choose
                0x08002cac       0x34 contiki-mbxxx.a(uip-ds6-route.o)
                0x08002cac                uip_ds6_defrt_choose
 .text.uip_ds6_defrt_periodic
                0x08002ce0       0x34 contiki-mbxxx.a(uip-ds6-route.o)
                0x08002ce0                uip_ds6_defrt_periodic
 .text.uip_ds6_nbr_rm
                0x08002d14       0x20 contiki-mbxxx.a(uip-ds6-nbr.o)
                0x08002d14                uip_ds6_nbr_rm
 .text.uip_ds6_neighbors_init
                0x08002d34       0x14 contiki-mbxxx.a(uip-ds6-nbr.o)
                0x08002d34                uip_ds6_neighbors_init
 .text.uip_ds6_nbr_add
                0x08002d48       0x58 contiki-mbxxx.a(uip-ds6-nbr.o)
                0x08002d48                uip_ds6_nbr_add
 .text.uip_ds6_nbr_get_ll
                0x08002da0       0x10 contiki-mbxxx.a(uip-ds6-nbr.o)
                0x08002da0                uip_ds6_nbr_get_ll
 .text.uip_ds6_nbr_lookup
                0x08002db0       0x38 contiki-mbxxx.a(uip-ds6-nbr.o)
                0x08002db0                uip_ds6_nbr_lookup
 .text.uip_ds6_nbr_ll_lookup
                0x08002de8       0x10 contiki-mbxxx.a(uip-ds6-nbr.o)
                0x08002de8                uip_ds6_nbr_ll_lookup
 .text.uip_ds6_nbr_ipaddr_from_lladdr
                0x08002df8        0x8 contiki-mbxxx.a(uip-ds6-nbr.o)
                0x08002df8                uip_ds6_nbr_ipaddr_from_lladdr
 .text.uip_ds6_nbr_lladdr_from_ipaddr
                0x08002e00       0x12 contiki-mbxxx.a(uip-ds6-nbr.o)
                0x08002e00                uip_ds6_nbr_lladdr_from_ipaddr
 *fill*         0x08002e12        0x2 00
 .text.uip_ds6_link_neighbor_callback
                0x08002e14       0x2c contiki-mbxxx.a(uip-ds6-nbr.o)
                0x08002e14                uip_ds6_link_neighbor_callback
 .text.uip_ds6_neighbor_periodic
                0x08002e40       0xf0 contiki-mbxxx.a(uip-ds6-nbr.o)
                0x08002e40                uip_ds6_neighbor_periodic
 .text.uip_ds6_list_loop
                0x08002f30       0x48 contiki-mbxxx.a(uip-ds6.o)
                0x08002f30                uip_ds6_list_loop
 .text.uip_ds6_prefix_add
                0x08002f78       0x5c contiki-mbxxx.a(uip-ds6.o)
                0x08002f78                uip_ds6_prefix_add
 .text.uip_ds6_is_addr_onlink
                0x08002fd4       0x40 contiki-mbxxx.a(uip-ds6.o)
                0x08002fd4                uip_ds6_is_addr_onlink
 .text.uip_ds6_addr_lookup
                0x08003014       0x2c contiki-mbxxx.a(uip-ds6.o)
                0x08003014                uip_ds6_addr_lookup
 .text.uip_ds6_get_link_local
                0x08003040       0x48 contiki-mbxxx.a(uip-ds6.o)
                0x08003040                uip_ds6_get_link_local
 .text.uip_ds6_maddr_add
                0x08003088       0x48 contiki-mbxxx.a(uip-ds6.o)
                0x08003088                uip_ds6_maddr_add
 .text.uip_ds6_addr_add
                0x080030d0       0x94 contiki-mbxxx.a(uip-ds6.o)
                0x080030d0                uip_ds6_addr_add
 .text.uip_ds6_maddr_rm
                0x08003164        0x8 contiki-mbxxx.a(uip-ds6.o)
                0x08003164                uip_ds6_maddr_rm
 .text.uip_ds6_maddr_lookup
                0x0800316c       0x2c contiki-mbxxx.a(uip-ds6.o)
                0x0800316c                uip_ds6_maddr_lookup
 .text.uip_ds6_addr_rm
                0x08003198       0x44 contiki-mbxxx.a(uip-ds6.o)
                0x08003198                uip_ds6_addr_rm
 .text.uip_ds6_periodic
                0x080031dc       0x50 contiki-mbxxx.a(uip-ds6.o)
                0x080031dc                uip_ds6_periodic
 .text.uip_ds6_set_addr_iid
                0x0800322c       0x12 contiki-mbxxx.a(uip-ds6.o)
                0x0800322c                uip_ds6_set_addr_iid
 .text.get_match_length
                0x0800323e       0x3a contiki-mbxxx.a(uip-ds6.o)
                0x0800323e                get_match_length
 .text.uip_ds6_select_src
                0x08003278       0x9c contiki-mbxxx.a(uip-ds6.o)
                0x08003278                uip_ds6_select_src
 .text.uip_ds6_compute_reachable_time
                0x08003314       0x28 contiki-mbxxx.a(uip-ds6.o)
                0x08003314                uip_ds6_compute_reachable_time
 .text.uip_ds6_init
                0x0800333c       0xe4 contiki-mbxxx.a(uip-ds6.o)
                0x0800333c                uip_ds6_init
 .text.create_llao
                0x08003420       0x24 contiki-mbxxx.a(uip-nd6.o)
 .text.uip_nd6_ns_input
                0x08003444      0x278 contiki-mbxxx.a(uip-nd6.o)
                0x08003444                uip_nd6_ns_input
 .text.uip_nd6_ns_output
                0x080036bc      0x164 contiki-mbxxx.a(uip-nd6.o)
                0x080036bc                uip_nd6_ns_output
 .text.uip_nd6_na_input
                0x08003820      0x1b0 contiki-mbxxx.a(uip-nd6.o)
                0x08003820                uip_nd6_na_input
 .text.uip_udp_packet_send
                0x080039d0       0x34 contiki-mbxxx.a(uip-udp-packet.)
                0x080039d0                uip_udp_packet_send
 .text.uip_udp_packet_sendto
                0x08003a04       0x4e contiki-mbxxx.a(uip-udp-packet.)
                0x08003a04                uip_udp_packet_sendto
 .text.chksum   0x08003a52       0x38 contiki-mbxxx.a(uip6.o)
 *fill*         0x08003a8a        0x2 00
 .text.uip_add_rcv_nxt
                0x08003a8c       0x2c contiki-mbxxx.a(uip6.o)
 .text.ext_hdr_options_process
                0x08003ab8       0xa8 contiki-mbxxx.a(uip6.o)
 .text.uip_init
                0x08003b60       0x68 contiki-mbxxx.a(uip6.o)
                0x08003b60                uip_init
 .text.remove_ext_hdr
                0x08003bc8       0x5c contiki-mbxxx.a(uip6.o)
                0x08003bc8                remove_ext_hdr
 .text.uip_unlisten
                0x08003c24       0x30 contiki-mbxxx.a(uip6.o)
                0x08003c24                uip_unlisten
 .text.uip_htons
                0x08003c54        0xa contiki-mbxxx.a(uip6.o)
                0x08003c54                uip_htons
 *fill*         0x08003c5e        0x2 00
 .text.uip_udp_new
                0x08003c60       0xb0 contiki-mbxxx.a(uip6.o)
                0x08003c60                uip_udp_new
 .text.upper_layer_chksum
                0x08003d10       0x54 contiki-mbxxx.a(uip6.o)
 .text.uip_udpchksum
                0x08003d64        0x6 contiki-mbxxx.a(uip6.o)
                0x08003d64                uip_udpchksum
 .text.uip_tcpchksum
                0x08003d6a        0x6 contiki-mbxxx.a(uip6.o)
                0x08003d6a                uip_tcpchksum
 .text.uip_icmp6chksum
                0x08003d70        0x6 contiki-mbxxx.a(uip6.o)
                0x08003d70                uip_icmp6chksum
 *fill*         0x08003d76        0x2 00
 .text.uip_process
                0x08003d78      0xd54 contiki-mbxxx.a(uip6.o)
                0x08003d78                uip_process
 .text.uip_htonl
                0x08004acc       0x18 contiki-mbxxx.a(uip6.o)
                0x08004acc                uip_htonl
 .text.status   0x08004ae4       0x18 contiki-mbxxx.a(button-sensor.o)
 .text.configure
                0x08004afc       0x84 contiki-mbxxx.a(button-sensor.o)
 .text.value    0x08004b80       0x3c contiki-mbxxx.a(button-sensor.o)
 .text.halIrqCIsr
                0x08004bbc       0x38 contiki-mbxxx.a(button-sensor.o)
                0x08004bbc                halIrqCIsr
 .text.status   0x08004bf4        0xc contiki-mbxxx.a(temperature-sen)
 .text.configure
                0x08004c00       0x20 contiki-mbxxx.a(temperature-sen)
 .text.value    0x08004c20       0x64 contiki-mbxxx.a(temperature-sen)
 .text.I2C_Send_Frame
                0x08004c84       0xd4 contiki-mbxxx.a(mems.o)
 .text.i2c_write_reg.clone.0
                0x08004d58       0x16 contiki-mbxxx.a(mems.o)
 *fill*         0x08004d6e        0x2 00
 .text.Mems_Init
                0x08004d70       0x9c contiki-mbxxx.a(mems.o)
                0x08004d70                Mems_Init
 .text.i2c_write_reg
                0x08004e0c       0x14 contiki-mbxxx.a(mems.o)
                0x08004e0c                i2c_write_reg
 .text.i2c_read_reg
                0x08004e20      0x180 contiki-mbxxx.a(mems.o)
                0x08004e20                i2c_read_reg
 .text.MEMS_On  0x08004fa0        0x8 contiki-mbxxx.a(mems.o)
                0x08004fa0                MEMS_On
 .text.MEMS_Off
                0x08004fa8        0x8 contiki-mbxxx.a(mems.o)
                0x08004fa8                MEMS_Off
 .text.MEMS_SetFullScale
                0x08004fb0       0x40 contiki-mbxxx.a(mems.o)
                0x08004fb0                MEMS_SetFullScale
 .text.MEMS_GetFullScale
                0x08004ff0        0xc contiki-mbxxx.a(mems.o)
                0x08004ff0                MEMS_GetFullScale
 .text.halBoardInit
                0x08004ffc       0x68 contiki-mbxxx.a(board.o)
                0x08004ffc                halBoardInit
 .text.halBoardPowerUp
                0x08005064      0x10c contiki-mbxxx.a(board.o)
                0x08005064                halBoardPowerUp
 .text.printLeds
                0x08005170       0x60 contiki-mbxxx.a(board.o)
                0x08005170                printLeds
 .text.printButtons
                0x080051d0       0x60 contiki-mbxxx.a(board.o)
                0x080051d0                printButtons
 .text.boardPrintStringDescription
                0x08005230      0x124 contiki-mbxxx.a(board.o)
                0x08005230                boardPrintStringDescription
 .text.show_leds.clone.0
                0x08005354       0x10 contiki-mbxxx.a(leds.o)
 .text.leds_init
                0x08005364       0x14 contiki-mbxxx.a(leds.o)
                0x08005364                leds_init
 .text.leds_on  0x08005378       0x14 contiki-mbxxx.a(leds.o)
                0x08005378                leds_on
 .text.leds_off
                0x0800538c       0x14 contiki-mbxxx.a(leds.o)
                0x0800538c                leds_off
 .text.SysTick_Handler
                0x080053a0       0x34 contiki-mbxxx.a(clock.o)
                0x080053a0                SysTick_Handler
 .text.clock_init
                0x080053d4       0x38 contiki-mbxxx.a(clock.o)
                0x080053d4                clock_init
 .text.clock_time
                0x0800540c        0xc contiki-mbxxx.a(clock.o)
                0x0800540c                clock_time
 .text.clock_wait
                0x08005418       0x16 contiki-mbxxx.a(clock.o)
                0x08005418                clock_wait
 *fill*         0x0800542e        0x2 00
 .text.clock_seconds
                0x08005430        0xc contiki-mbxxx.a(clock.o)
                0x08005430                clock_seconds
 .text.watchdog_start
                0x0800543c        0x4 contiki-mbxxx.a(watchdog.o)
                0x0800543c                watchdog_start
 .text.watchdog_periodic
                0x08005440        0x4 contiki-mbxxx.a(watchdog.o)
                0x08005440                watchdog_periodic
 .text.putchar  0x08005444        0xe contiki-mbxxx.a(uart1-putchar.o)
                0x08005444                putchar
 .text.__io_putchar
                0x08005452        0x4 contiki-mbxxx.a(uart1-putchar.o)
                0x08005452                __io_putchar
 *fill*         0x08005456        0x2 00
 .text.RELEASE_LOCK
                0x08005458       0x10 contiki-mbxxx.a(stm32w-radio.o)
 .text.stm32w_radio_receiving_packet
                0x08005468        0xc contiki-mbxxx.a(stm32w-radio.o)
 .text.stm32w_radio_pending_packet
                0x08005474       0x14 contiki-mbxxx.a(stm32w-radio.o)
 .text.stm32w_radio_off
                0x08005488       0x48 contiki-mbxxx.a(stm32w-radio.o)
 .text.stm32w_radio_on
                0x080054d0       0x20 contiki-mbxxx.a(stm32w-radio.o)
 .text.stm32w_radio_channel_clear
                0x080054f0        0x8 contiki-mbxxx.a(stm32w-radio.o)
 .text.stm32w_radio_prepare
                0x080054f8       0x24 contiki-mbxxx.a(stm32w-radio.o)
 .text.stm32w_radio_read
                0x0800551c       0x9c contiki-mbxxx.a(stm32w-radio.o)
 .text.stm32w_radio_transmit
                0x080055b8       0xe8 contiki-mbxxx.a(stm32w-radio.o)
 .text.stm32w_radio_send
                0x080056a0       0x18 contiki-mbxxx.a(stm32w-radio.o)
 .text.stm32w_radio_init
                0x080056b8       0x50 contiki-mbxxx.a(stm32w-radio.o)
 .text.process_thread_stm32w_radio_process
                0x08005708       0x68 contiki-mbxxx.a(stm32w-radio.o)
 .text.RXBUFS_FULL
                0x08005770       0x1c contiki-mbxxx.a(stm32w-radio.o)
                0x08005770                RXBUFS_FULL
 .text.ST_RadioReceiveIsrCallback
                0x0800578c       0xac contiki-mbxxx.a(stm32w-radio.o)
                0x0800578c                ST_RadioReceiveIsrCallback
 .text.ST_RadioTransmitCompleteIsrCallback
                0x08005838       0x5c contiki-mbxxx.a(stm32w-radio.o)
                0x08005838                ST_RadioTransmitCompleteIsrCallback
 .text.ST_RadioDataPendingShortIdIsrCallback
                0x08005894       0x10 contiki-mbxxx.a(stm32w-radio.o)
                0x08005894                ST_RadioDataPendingShortIdIsrCallback
 .text.ST_RadioDataPendingLongIdIsrCallback
                0x080058a4       0x10 contiki-mbxxx.a(stm32w-radio.o)
                0x080058a4                ST_RadioDataPendingLongIdIsrCallback
 .text.ST_RadioOverflowIsrCallback
                0x080058b4        0x2 contiki-mbxxx.a(stm32w-radio.o)
                0x080058b4                ST_RadioOverflowIsrCallback
 .text.ST_RadioSfdSentIsrCallback
                0x080058b6        0x2 contiki-mbxxx.a(stm32w-radio.o)
                0x080058b6                ST_RadioSfdSentIsrCallback
 .text.ST_RadioMacTimerCompareIsrCallback
                0x080058b8        0x2 contiki-mbxxx.a(stm32w-radio.o)
                0x080058b8                ST_RadioMacTimerCompareIsrCallback
 *fill*         0x080058ba        0x2 00
 .text.SysTick_CLKSourceConfig
                0x080058bc       0x18 contiki-mbxxx.a(stm32w-systick.)
                0x080058bc                SysTick_CLKSourceConfig
 .text.SysTick_SetReload
                0x080058d4        0xc contiki-mbxxx.a(stm32w-systick.)
                0x080058d4                SysTick_SetReload
 .text.SysTick_CounterCmd
                0x080058e0       0x28 contiki-mbxxx.a(stm32w-systick.)
                0x080058e0                SysTick_CounterCmd
 .text.SysTick_ITConfig
                0x08005908       0x1c contiki-mbxxx.a(stm32w-systick.)
                0x08005908                SysTick_ITConfig
 .text.uip_add32
                0x08005924       0x2c contiki-mbxxx.a(uip-arch.o)
                0x08005924                uip_add32
 .text.halTimer1Isr
                0x08005950       0x74 contiki-mbxxx.a(rtimer-arch.o)
                0x08005950                halTimer1Isr
 .text.rtimer_arch_init
                0x080059c4       0x40 contiki-mbxxx.a(rtimer-arch.o)
                0x080059c4                rtimer_arch_init
 .text.rtimer_arch_now
                0x08005a04       0x24 contiki-mbxxx.a(rtimer-arch.o)
                0x08005a04                rtimer_arch_now
 .text.rtimer_arch_schedule
                0x08005a28       0x3c contiki-mbxxx.a(rtimer-arch.o)
                0x08005a28                rtimer_arch_schedule
 .text.halAdcSetRange
                0x08005a64       0x1c contiki-mbxxx.a(adc.o)
                0x08005a64                halAdcSetRange
 .text.halAdcGetRange
                0x08005a80       0x14 contiki-mbxxx.a(adc.o)
                0x08005a80                halAdcGetRange
 .text.halAdcIsr
                0x08005a94       0x80 contiki-mbxxx.a(adc.o)
                0x08005a94                halAdcIsr
 .text.startNextConversion
                0x08005b14       0x70 contiki-mbxxx.a(adc.o)
                0x08005b14                startNextConversion
 .text.halInternalInitAdc
                0x08005b84       0x68 contiki-mbxxx.a(adc.o)
                0x08005b84                halInternalInitAdc
 .text.halStartAdcConversion
                0x08005bec       0x5c contiki-mbxxx.a(adc.o)
                0x08005bec                halStartAdcConversion
 .text.halRequestAdcData
                0x08005c48       0x9c contiki-mbxxx.a(adc.o)
                0x08005c48                halRequestAdcData
 .text.halReadAdcBlocking
                0x08005ce4       0x18 contiki-mbxxx.a(adc.o)
                0x08005ce4                halReadAdcBlocking
 .text.halAdcCalibrate
                0x08005cfc       0x98 contiki-mbxxx.a(adc.o)
                0x08005cfc                halAdcCalibrate
 .text.halConvertValueToVolts
                0x08005d94       0x84 contiki-mbxxx.a(adc.o)
                0x08005d94                halConvertValueToVolts
 .text.halGetADCChannelFromGPIO
                0x08005e18       0x18 contiki-mbxxx.a(adc.o)
                0x08005e18                halGetADCChannelFromGPIO
 .text.shift    0x08005e30       0x12 contiki-mbxxx.a(micro.o)
 .text.halPowerUp
                0x08005e42       0x16 contiki-mbxxx.a(micro.o)
                0x08005e42                halPowerUp
 .text.halInit  0x08005e58       0x2c contiki-mbxxx.a(micro.o)
                0x08005e58                halInit
 .text.halCommonGetRandom
                0x08005e84       0x24 contiki-mbxxx.a(micro.o)
                0x08005e84                halCommonGetRandom
 .text.halCommonMemCopy
                0x08005ea8        0x4 contiki-mbxxx.a(micro.o)
                0x08005ea8                halCommonMemCopy
 .text.halCommonMemCompare
                0x08005eac        0xa contiki-mbxxx.a(micro.o)
                0x08005eac                halCommonMemCompare
 *fill*         0x08005eb6        0x2 00
 .text.halInternalSleep
                0x08005eb8      0x60c contiki-mbxxx.a(sleep.o)
                0x08005eb8                halInternalSleep
 .text.halSleepWithOptions
                0x080064c4       0x6c contiki-mbxxx.a(sleep.o)
                0x080064c4                halSleepWithOptions
 .text.halInternalEnableWatchDog
                0x08006530       0x18 contiki-mbxxx.a(micro-common.o)
                0x08006530                halInternalEnableWatchDog
 .text.halInternalResetWatchDog
                0x08006548        0xc contiki-mbxxx.a(micro-common.o)
                0x08006548                halInternalResetWatchDog
 .text.halInternalDisableWatchDog
                0x08006554       0x18 contiki-mbxxx.a(micro-common.o)
                0x08006554                halInternalDisableWatchDog
 .text.halInternalWatchDogEnabled
                0x0800656c       0x10 contiki-mbxxx.a(micro-common.o)
                0x0800656c                halInternalWatchDogEnabled
 .text.halGpioConfig
                0x0800657c       0x28 contiki-mbxxx.a(micro-common.o)
                0x0800657c                halGpioConfig
 .text.halGpioSet
                0x080065a4       0x30 contiki-mbxxx.a(micro-common.o)
                0x080065a4                halGpioSet
 .text.halInternalStartSystemTimer
                0x080065d4       0x40 contiki-mbxxx.a(micro-common.o)
                0x080065d4                halInternalStartSystemTimer
 .text.stCalibrateVref
                0x08006614       0x6c contiki-mbxxx.a(micro-common-in)
                0x08006614                stCalibrateVref
 .text.calDisableAdc
                0x08006680       0x10 contiki-mbxxx.a(micro-common-in)
                0x08006680                calDisableAdc
 .text.calStartAdcConversion
                0x08006690       0x44 contiki-mbxxx.a(micro-common-in)
                0x08006690                calStartAdcConversion
 .text.calReadAdcBlocking
                0x080066d4       0x20 contiki-mbxxx.a(micro-common-in)
                0x080066d4                calReadAdcBlocking
 .text.stMeasureVddFast
                0x080066f4       0xa4 contiki-mbxxx.a(micro-common-in)
                0x080066f4                stMeasureVddFast
 .text.halCommonCalibratePads
                0x08006798       0x24 contiki-mbxxx.a(micro-common-in)
                0x08006798                halCommonCalibratePads
 .text.halInternalSetRegTrim
                0x080067bc       0x4c contiki-mbxxx.a(micro-common-in)
                0x080067bc                halInternalSetRegTrim
 .text.halCommonDelayMicroseconds
                0x08006808       0x40 contiki-mbxxx.a(micro-common-in)
                0x08006808                halCommonDelayMicroseconds
 .text.setBiasCheckLow
                0x08006848       0x28 contiki-mbxxx.a(clocks.o)
 .text.halInternalCalibrateSlowRc
                0x08006870       0x98 contiki-mbxxx.a(clocks.o)
                0x08006870                halInternalCalibrateSlowRc
 .text.halInternalCalibrateFastRc
                0x08006908       0x34 contiki-mbxxx.a(clocks.o)
                0x08006908                halInternalCalibrateFastRc
 .text.halInternalSearchForBiasTrim
                0x0800693c       0x5c contiki-mbxxx.a(clocks.o)
                0x0800693c                halInternalSearchForBiasTrim
 .text.halInternalSwitchToXtal
                0x08006998       0xb4 contiki-mbxxx.a(clocks.o)
                0x08006998                halInternalSwitchToXtal
 .text.halInternalGetMfgTokenData
                0x08006a4c       0x58 contiki-mbxxx.a(mfg-token.o)
                0x08006a4c                halInternalGetMfgTokenData
 .text.verifyFib
                0x08006aa4       0x2c contiki-mbxxx.a(flash.o)
 .text.halInternalFlashErase
                0x08006ad0       0x60 contiki-mbxxx.a(flash.o)
                0x08006ad0                halInternalFlashErase
 .text.halInternalFlashWrite
                0x08006b30       0x5c contiki-mbxxx.a(flash.o)
                0x08006b30                halInternalFlashWrite
 .text.rand     0x08006b8c       0x12 contiki-mbxxx.a(rand.o)
                0x08006b8c                rand
 .text.setStackPointer.clone.0
                0x08006b9e        0x4 contiki-mbxxx.a(crt-stm32w108.o)
 *fill*         0x08006ba2        0x2 00
 .text.Reset_Handler
                0x08006ba4      0x15c contiki-mbxxx.a(crt-stm32w108.o)
                0x08006ba4                Reset_Handler
 .text.Default_Handler
                0x08006d00        0x2 contiki-mbxxx.a(crt-stm32w108.o)
                0x08006d00                halSleepTimerIsr
                0x08006d00                HardFault_Handler
                0x08006d00                NMI_Handler
                0x08006d00                UsageFault_Handler
                0x08006d00                Default_Handler
                0x08006d00                halTimer2Isr
                0x08006d00                MemManage_Handler
                0x08006d00                halManagementIsr
                0x08006d00                SVC_Handler
                0x08006d00                halSc2Isr
                0x08006d00                halDebugIsr
                0x08006d00                halIrqBIsr
                0x08006d00                halSecurityIsr
                0x08006d00                halBaseBandIsr
                0x08006d00                BusFault_Handler
                0x08006d00                halIrqDIsr
                0x08006d00                DebugMonitor_Handler
 .text.rimeaddr_copy
                0x08006d02        0xa contiki-mbxxx.a(rimeaddr.o)
                0x08006d02                rimeaddr_copy
 .text.rimeaddr_cmp
                0x08006d0c       0x12 contiki-mbxxx.a(rimeaddr.o)
                0x08006d0c                rimeaddr_cmp
 *fill*         0x08006d1e        0x2 00
 .text.rimeaddr_set_node_addr
                0x08006d20        0xc contiki-mbxxx.a(rimeaddr.o)
                0x08006d20                rimeaddr_set_node_addr
 .text.addr_len
                0x08006d2c       0x14 contiki-mbxxx.a(frame802154.o)
 .text.field_len
                0x08006d40       0x68 contiki-mbxxx.a(frame802154.o)
 .text.frame802154_hdrlen
                0x08006da8       0x28 contiki-mbxxx.a(frame802154.o)
                0x08006da8                frame802154_hdrlen
 .text.frame802154_create
                0x08006dd0       0xe8 contiki-mbxxx.a(frame802154.o)
                0x08006dd0                frame802154_create
 .text.frame802154_parse
                0x08006eb8      0x138 contiki-mbxxx.a(frame802154.o)
                0x08006eb8                frame802154_parse
 .text.parse    0x08006ff0       0x94 contiki-mbxxx.a(framer-802154.o)
 .text.create   0x08007084      0x114 contiki-mbxxx.a(framer-802154.o)
 .text.rpl_purge_routes
                0x08007198       0x68 contiki-mbxxx.a(rpl.o)
                0x08007198                rpl_purge_routes
 .text.rpl_remove_routes
                0x08007200       0x20 contiki-mbxxx.a(rpl.o)
                0x08007200                rpl_remove_routes
 .text.rpl_remove_routes_by_nexthop
                0x08007220       0x38 contiki-mbxxx.a(rpl.o)
                0x08007220                rpl_remove_routes_by_nexthop
 .text.rpl_add_route
                0x08007258       0x28 contiki-mbxxx.a(rpl.o)
                0x08007258                rpl_add_route
 .text.rpl_link_neighbor_callback
                0x08007280       0x64 contiki-mbxxx.a(rpl.o)
                0x08007280                rpl_link_neighbor_callback
 .text.rpl_ipv6_neighbor_callback
                0x080072e4       0x24 contiki-mbxxx.a(rpl.o)
                0x080072e4                rpl_ipv6_neighbor_callback
 .text.rpl_init
                0x08007308       0x44 contiki-mbxxx.a(rpl.o)
                0x08007308                rpl_init
 .text.lollipop_greater_than
                0x0800734c       0x34 contiki-mbxxx.a(rpl-dag.o)
 .text.acceptable_rank
                0x08007380       0x32 contiki-mbxxx.a(rpl-dag.o)
 *fill*         0x080073b2        0x2 00
 .text.find_parent_any_dag_any_instance
                0x080073b4       0x1c contiki-mbxxx.a(rpl-dag.o)
 .text.rpl_set_preferred_parent
                0x080073d0       0x24 contiki-mbxxx.a(rpl-dag.o)
 .text.set_ip_from_prefix
                0x080073f4       0x2c contiki-mbxxx.a(rpl-dag.o)
 .text.check_prefix
                0x08007420       0x58 contiki-mbxxx.a(rpl-dag.o)
 .text.find_parent_dag.clone.1
                0x08007478        0xc contiki-mbxxx.a(rpl-dag.o)
 .text.rpl_dag_init
                0x08007484       0x10 contiki-mbxxx.a(rpl-dag.o)
                0x08007484                rpl_dag_init
 .text.rpl_get_parent_ipaddr
                0x08007494       0x18 contiki-mbxxx.a(rpl-dag.o)
                0x08007494                rpl_get_parent_ipaddr
 .text.rpl_set_prefix
                0x080074ac       0x6a contiki-mbxxx.a(rpl-dag.o)
                0x080074ac                rpl_set_prefix
 .text.rpl_set_default_route
                0x08007516       0x3e contiki-mbxxx.a(rpl-dag.o)
                0x08007516                rpl_set_default_route
 .text.rpl_alloc_instance
                0x08007554       0x2c contiki-mbxxx.a(rpl-dag.o)
                0x08007554                rpl_alloc_instance
 .text.rpl_add_parent
                0x08007580       0x30 contiki-mbxxx.a(rpl-dag.o)
                0x08007580                rpl_add_parent
 .text.rpl_find_parent
                0x080075b0       0x16 contiki-mbxxx.a(rpl-dag.o)
                0x080075b0                rpl_find_parent
 .text.rpl_find_parent_any_dag
                0x080075c6       0x1e contiki-mbxxx.a(rpl-dag.o)
                0x080075c6                rpl_find_parent_any_dag
 .text.rpl_select_parent
                0x080075e4       0x50 contiki-mbxxx.a(rpl-dag.o)
                0x080075e4                rpl_select_parent
 .text.rpl_select_dag
                0x08007634      0x138 contiki-mbxxx.a(rpl-dag.o)
                0x08007634                rpl_select_dag
 .text.rpl_nullify_parent
                0x0800776c       0x3e contiki-mbxxx.a(rpl-dag.o)
                0x0800776c                rpl_nullify_parent
 *fill*         0x080077aa        0x2 00
 .text.rpl_remove_parent
                0x080077ac       0x18 contiki-mbxxx.a(rpl-dag.o)
                0x080077ac                rpl_remove_parent
 .text.remove_parents.clone.3
                0x080077c4       0x2c contiki-mbxxx.a(rpl-dag.o)
 .text.rpl_free_dag
                0x080077f0       0x30 contiki-mbxxx.a(rpl-dag.o)
                0x080077f0                rpl_free_dag
 .text.rpl_free_instance
                0x08007820       0x50 contiki-mbxxx.a(rpl-dag.o)
                0x08007820                rpl_free_instance
 .text.rpl_move_parent
                0x08007870       0x56 contiki-mbxxx.a(rpl-dag.o)
                0x08007870                rpl_move_parent
 *fill*         0x080078c6        0x2 00
 .text.rpl_get_any_dag
                0x080078c8       0x18 contiki-mbxxx.a(rpl-dag.o)
                0x080078c8                rpl_get_any_dag
 .text.rpl_get_instance
                0x080078e0       0x20 contiki-mbxxx.a(rpl-dag.o)
                0x080078e0                rpl_get_instance
 .text.get_dag  0x08007900       0x2c contiki-mbxxx.a(rpl-dag.o)
 .text.rpl_alloc_dag
                0x0800792c       0x52 contiki-mbxxx.a(rpl-dag.o)
                0x0800792c                rpl_alloc_dag
 .text.rpl_repair_root
                0x0800797e       0x48 contiki-mbxxx.a(rpl-dag.o)
                0x0800797e                rpl_repair_root
 *fill*         0x080079c6        0x2 00
 .text.rpl_find_of
                0x080079c8       0x14 contiki-mbxxx.a(rpl-dag.o)
                0x080079c8                rpl_find_of
 .text.rpl_join_instance
                0x080079dc      0x140 contiki-mbxxx.a(rpl-dag.o)
                0x080079dc                rpl_join_instance
 .text.rpl_local_repair
                0x08007b1c       0x48 contiki-mbxxx.a(rpl-dag.o)
                0x08007b1c                rpl_local_repair
 .text.rpl_process_parent_event
                0x08007b64       0x3c contiki-mbxxx.a(rpl-dag.o)
                0x08007b64                rpl_process_parent_event
 .text.rpl_recalculate_ranks
                0x08007ba0       0x38 contiki-mbxxx.a(rpl-dag.o)
                0x08007ba0                rpl_recalculate_ranks
 .text.rpl_add_dag
                0x08007bd8       0xf4 contiki-mbxxx.a(rpl-dag.o)
                0x08007bd8                rpl_add_dag
 .text.rpl_process_dio
                0x08007ccc      0x22a contiki-mbxxx.a(rpl-dag.o)
                0x08007ccc                rpl_process_dio
 .text.get32    0x08007ef6       0x18 contiki-mbxxx.a(rpl-icmp6.o)
 .text.set32    0x08007f0e       0x16 contiki-mbxxx.a(rpl-icmp6.o)
 .text.get16    0x08007f24        0xc contiki-mbxxx.a(rpl-icmp6.o)
 .text.set16    0x08007f30        0xa contiki-mbxxx.a(rpl-icmp6.o)
 *fill*         0x08007f3a        0x2 00
 .text.dis_output
                0x08007f3c       0x54 contiki-mbxxx.a(rpl-icmp6.o)
                0x08007f3c                dis_output
 .text.dio_output
                0x08007f90      0x22c contiki-mbxxx.a(rpl-icmp6.o)
                0x08007f90                dio_output
 .text.dao_output_target
                0x080081bc       0xb0 contiki-mbxxx.a(rpl-icmp6.o)
                0x080081bc                dao_output_target
 .text.dao_output
                0x0800826c       0x54 contiki-mbxxx.a(rpl-icmp6.o)
                0x0800826c                dao_output
 .text.dao_ack_output
                0x080082c0       0x34 contiki-mbxxx.a(rpl-icmp6.o)
                0x080082c0                dao_ack_output
 .text.uip_rpl_input
                0x080082f4      0x46c contiki-mbxxx.a(rpl-icmp6.o)
                0x080082f4                uip_rpl_input
 .text.new_dio_interval
                0x08008760       0x54 contiki-mbxxx.a(rpl-timers.o)
 .text.handle_dao_timer
                0x080087b4       0x48 contiki-mbxxx.a(rpl-timers.o)
 .text.handle_dio_timer
                0x080087fc       0x80 contiki-mbxxx.a(rpl-timers.o)
 .text.handle_periodic_timer
                0x0800887c       0x38 contiki-mbxxx.a(rpl-timers.o)
 .text.rpl_reset_periodic_timer
                0x080088b4       0x34 contiki-mbxxx.a(rpl-timers.o)
                0x080088b4                rpl_reset_periodic_timer
 .text.rpl_reset_dio_timer
                0x080088e8       0x1c contiki-mbxxx.a(rpl-timers.o)
                0x080088e8                rpl_reset_dio_timer
 .text.rpl_schedule_dao
                0x08008904       0x44 contiki-mbxxx.a(rpl-timers.o)
                0x08008904                rpl_schedule_dao
 .text.calculate_path_metric
                0x08008948       0x12 contiki-mbxxx.a(rpl-mrhof.o)
 .text.reset    0x0800895a        0x2 contiki-mbxxx.a(rpl-mrhof.o)
 .text.neighbor_link_callback
                0x0800895c       0x26 contiki-mbxxx.a(rpl-mrhof.o)
 .text.calculate_rank
                0x08008982       0x2c contiki-mbxxx.a(rpl-mrhof.o)
 .text.best_dag
                0x080089ae       0x2c contiki-mbxxx.a(rpl-mrhof.o)
 .text.best_parent
                0x080089da       0x3a contiki-mbxxx.a(rpl-mrhof.o)
 .text.update_metric_container
                0x08008a14        0x6 contiki-mbxxx.a(rpl-mrhof.o)
 *fill*         0x08008a1a        0x2 00
 .text.rpl_verify_header
                0x08008a1c       0xa4 contiki-mbxxx.a(rpl-ext-header.)
                0x08008a1c                rpl_verify_header
 .text.rpl_update_header_empty
                0x08008ac0      0x11c contiki-mbxxx.a(rpl-ext-header.)
                0x08008ac0                rpl_update_header_empty
 .text.rpl_update_header_final
                0x08008bdc       0x8c contiki-mbxxx.a(rpl-ext-header.)
                0x08008bdc                rpl_update_header_final
 .text.rpl_invert_header
                0x08008c68       0x50 contiki-mbxxx.a(rpl-ext-header.)
                0x08008c68                rpl_invert_header
 .text.rpl_insert_header
                0x08008cb8       0x24 contiki-mbxxx.a(rpl-ext-header.)
                0x08008cb8                rpl_insert_header
 .text.memb_init
                0x08008cdc       0x20 contiki-mbxxx.a(memb.o)
                0x08008cdc                memb_init
 .text.memb_alloc
                0x08008cfc       0x28 contiki-mbxxx.a(memb.o)
                0x08008cfc                memb_alloc
 .text.memb_free
                0x08008d24       0x2c contiki-mbxxx.a(memb.o)
                0x08008d24                memb_free
 .text.memb_inmemb
                0x08008d50       0x1c contiki-mbxxx.a(memb.o)
                0x08008d50                memb_inmemb
 .text.timer_set
                0x08008d6c        0xe contiki-mbxxx.a(timer.o)
                0x08008d6c                timer_set
 .text.timer_reset
                0x08008d7a        0xa contiki-mbxxx.a(timer.o)
                0x08008d7a                timer_reset
 .text.timer_restart
                0x08008d84        0xc contiki-mbxxx.a(timer.o)
                0x08008d84                timer_restart
 .text.timer_expired
                0x08008d90       0x1c contiki-mbxxx.a(timer.o)
                0x08008d90                timer_expired
 .text.list_init
                0x08008dac        0x6 contiki-mbxxx.a(list.o)
                0x08008dac                list_init
 .text.list_head
                0x08008db2        0x4 contiki-mbxxx.a(list.o)
                0x08008db2                list_head
 .text.list_tail
                0x08008db6       0x10 contiki-mbxxx.a(list.o)
                0x08008db6                list_tail
 .text.list_remove
                0x08008dc6       0x26 contiki-mbxxx.a(list.o)
                0x08008dc6                list_remove
 .text.list_push
                0x08008dec       0x12 contiki-mbxxx.a(list.o)
                0x08008dec                list_push
 .text.list_add
                0x08008dfe       0x1e contiki-mbxxx.a(list.o)
                0x08008dfe                list_add
 .text.list_length
                0x08008e1c       0x10 contiki-mbxxx.a(list.o)
                0x08008e1c                list_length
 .text.list_item_next
                0x08008e2c        0x6 contiki-mbxxx.a(list.o)
                0x08008e2c                list_item_next
 *fill*         0x08008e32        0x2 00
 .text.process_thread_ctimer_process
                0x08008e34       0x84 contiki-mbxxx.a(ctimer.o)
 .text.ctimer_init
                0x08008eb8       0x20 contiki-mbxxx.a(ctimer.o)
                0x08008eb8                ctimer_init
 .text.ctimer_set
                0x08008ed8       0x44 contiki-mbxxx.a(ctimer.o)
                0x08008ed8                ctimer_set
 .text.ctimer_reset
                0x08008f1c       0x3c contiki-mbxxx.a(ctimer.o)
                0x08008f1c                ctimer_reset
 .text.ctimer_stop
                0x08008f58       0x28 contiki-mbxxx.a(ctimer.o)
                0x08008f58                ctimer_stop
 .text.rtimer_init
                0x08008f80        0x4 contiki-mbxxx.a(rtimer.o)
                0x08008f80                rtimer_init
 .text.rtimer_run_next
                0x08008f84       0x28 contiki-mbxxx.a(rtimer.o)
                0x08008f84                rtimer_run_next
 .text.stimer_set
                0x08008fac        0xe contiki-mbxxx.a(stimer.o)
                0x08008fac                stimer_set
 *fill*         0x08008fba        0x2 00
 .text.stimer_expired
                0x08008fbc       0x20 contiki-mbxxx.a(stimer.o)
                0x08008fbc                stimer_expired
 .text.item_from_index
                0x08008fdc       0x16 contiki-mbxxx.a(nbr-table.o)
 *fill*         0x08008ff2        0x2 00
 .text.index_from_key
                0x08008ff4       0x20 contiki-mbxxx.a(nbr-table.o)
 .text.index_from_item
                0x08009014       0x1c contiki-mbxxx.a(nbr-table.o)
 .text.item_from_key
                0x08009030       0x16 contiki-mbxxx.a(nbr-table.o)
 *fill*         0x08009046        0x2 00
 .text.key_from_item
                0x08009048       0x20 contiki-mbxxx.a(nbr-table.o)
 .text.nbr_set_bit
                0x08009068       0x3e contiki-mbxxx.a(nbr-table.o)
 *fill*         0x080090a6        0x2 00
 .text.index_from_lladdr
                0x080090a8       0x40 contiki-mbxxx.a(nbr-table.o)
 .text.nbr_get_bit.clone.0
                0x080090e8       0x2c contiki-mbxxx.a(nbr-table.o)
 .text.nbr_table_register
                0x08009114       0x24 contiki-mbxxx.a(nbr-table.o)
                0x08009114                nbr_table_register
 .text.nbr_table_next
                0x08009138       0x2e contiki-mbxxx.a(nbr-table.o)
                0x08009138                nbr_table_next
 *fill*         0x08009166        0x2 00
 .text.nbr_table_head
                0x08009168       0x34 contiki-mbxxx.a(nbr-table.o)
                0x08009168                nbr_table_head
 .text.nbr_table_add_lladdr
                0x0800919c      0x118 contiki-mbxxx.a(nbr-table.o)
                0x0800919c                nbr_table_add_lladdr
 .text.nbr_table_get_from_lladdr
                0x080092b4       0x26 contiki-mbxxx.a(nbr-table.o)
                0x080092b4                nbr_table_get_from_lladdr
 *fill*         0x080092da        0x2 00
 .text.nbr_table_remove
                0x080092dc       0x2c contiki-mbxxx.a(nbr-table.o)
                0x080092dc                nbr_table_remove
 .text.nbr_table_lock
                0x08009308       0x14 contiki-mbxxx.a(nbr-table.o)
                0x08009308                nbr_table_lock
 .text.nbr_table_unlock
                0x0800931c       0x14 contiki-mbxxx.a(nbr-table.o)
                0x0800931c                nbr_table_unlock
 .text.nbr_table_get_lladdr
                0x08009330        0xc contiki-mbxxx.a(nbr-table.o)
                0x08009330                nbr_table_get_lladdr
 .text.uip_icmp6_echo_request_input
                0x0800933c      0x118 contiki-mbxxx.a(uip-icmp6.o)
                0x0800933c                uip_icmp6_echo_request_input
 .text.uip_icmp6_error_output
                0x08009454      0x164 contiki-mbxxx.a(uip-icmp6.o)
                0x08009454                uip_icmp6_error_output
 .text.uip_icmp6_send
                0x080095b8       0x8c contiki-mbxxx.a(uip-icmp6.o)
                0x080095b8                uip_icmp6_send
 .text.get_sensor_index
                0x08009644       0x28 contiki-mbxxx.a(sensors.o)
 .text.process_thread_sensors_process
                0x0800966c       0xc8 contiki-mbxxx.a(sensors.o)
 .text.sensors_changed
                0x08009734       0x24 contiki-mbxxx.a(sensors.o)
                0x08009734                sensors_changed
 .text.main     0x08009758      0x198 contiki-mbxxx.a(contiki-main.o)
                0x08009758                main
 .text.leds_arch_init
                0x080098f0       0x60 contiki-mbxxx.a(leds-arch.o)
                0x080098f0                leds_arch_init
 .text.leds_arch_set
                0x08009950       0x50 contiki-mbxxx.a(leds-arch.o)
                0x08009950                leds_arch_set
 .text.uart1_set_input
                0x080099a0        0xc contiki-mbxxx.a(uart1.o)
                0x080099a0                uart1_set_input
 .text.uart1_writeb
                0x080099ac       0x24 contiki-mbxxx.a(uart1.o)
                0x080099ac                uart1_writeb
 .text.uart1_init
                0x080099d0       0xa8 contiki-mbxxx.a(uart1.o)
                0x080099d0                uart1_init
 .text.uart1_rx_interrupt
                0x08009a78       0x1c contiki-mbxxx.a(uart1.o)
                0x08009a78                uart1_rx_interrupt
 .text.halSc1Isr
                0x08009a94       0x1c contiki-mbxxx.a(uart1.o)
                0x08009a94                halSc1Isr
 .text.procinit_init
                0x08009ab0       0x1c contiki-mbxxx.a(procinit.o)
                0x08009ab0                procinit_init
 .text.autostart_start
                0x08009acc       0x16 contiki-mbxxx.a(autostart.o)
                0x08009acc                autostart_start
 *fill*         0x08009ae2        0x2 00
 .text.process_thread_serial_line_process
                0x08009ae4       0x9c contiki-mbxxx.a(serial-line.o)
 .text.serial_line_input_byte
                0x08009b80       0x44 contiki-mbxxx.a(serial-line.o)
                0x08009b80                serial_line_input_byte
 .text.serial_line_init
                0x08009bc4       0x24 contiki-mbxxx.a(serial-line.o)
                0x08009bc4                serial_line_init
 .text.energest_init
                0x08009be8        0x2 contiki-mbxxx.a(energest.o)
                0x08009be8                energest_init
 .text.ringbuf_init
                0x08009bea        0xe contiki-mbxxx.a(ringbuf.o)
                0x08009bea                ringbuf_init
 .text.ringbuf_put
                0x08009bf8       0x26 contiki-mbxxx.a(ringbuf.o)
                0x08009bf8                ringbuf_put
 .text.ringbuf_get
                0x08009c1e       0x22 contiki-mbxxx.a(ringbuf.o)
                0x08009c1e                ringbuf_get
 .text.netstack_init
                0x08009c40       0x2c contiki-mbxxx.a(netstack.o)
                0x08009c40                netstack_init
 .text.value    0x08009c6c       0x10 contiki-mbxxx.a(contact-sensor.)
 .text.status   0x08009c7c        0xc contiki-mbxxx.a(contact-sensor.)
 .text.halIrqAIsr
                0x08009c88       0x34 contiki-mbxxx.a(contact-sensor.)
                0x08009c88                halIrqAIsr
 .text.configure
                0x08009cbc       0x60 contiki-mbxxx.a(contact-sensor.)
 .text.ST_RadioGetEui64
                0x08009d1c        0x8 ../../../cpu/stm32w108/simplemac/library/simplemac-library-gnu.a(phy-library-min.o)
                0x08009d1c                ST_RadioGetEui64
 .text.stmPacketReceivedInternalIsrCallback
                0x08009d24       0x48 ../../../cpu/stm32w108/simplemac/library/simplemac-library-gnu.a(phy-library-min.o)
                0x08009d24                stmPacketReceivedInternalIsrCallback
 .text.halStackMacTimerIsr
                0x08009d6c       0x24 ../../../cpu/stm32w108/simplemac/library/simplemac-library-gnu.a(phy-library-min.o)
                0x08009d6c                halStackMacTimerIsr
 .text.ST_RadioChannelIsClear
                0x08009d90       0x10 ../../../cpu/stm32w108/simplemac/library/simplemac-library-gnu.a(phy-library-min.o)
                0x08009d90                ST_RadioChannelIsClear
 .text.ST_RadioGetRandomNumbers
                0x08009da0        0x4 ../../../cpu/stm32w108/simplemac/library/simplemac-library-gnu.a(phy-library-min.o)
                0x08009da0                ST_RadioGetRandomNumbers
 .text.stmLongIdDataPendingForDevice
                0x08009da4        0x4 ../../../cpu/stm32w108/simplemac/library/simplemac-library-gnu.a(phy-library-min.o)
                0x08009da4                stmLongIdDataPendingForDevice
 .text.ST_RadioSetPanId
                0x08009da8        0x4 ../../../cpu/stm32w108/simplemac/library/simplemac-library-gnu.a(phy-library-min.o)
                0x08009da8                ST_RadioSetPanId
 .text.ST_RadioEnableAutoAck
                0x08009dac        0x4 ../../../cpu/stm32w108/simplemac/library/simplemac-library-gnu.a(phy-library-min.o)
                0x08009dac                ST_RadioEnableAutoAck
 .text.ST_RadioEnableAddressFiltering
                0x08009db0        0x4 ../../../cpu/stm32w108/simplemac/library/simplemac-library-gnu.a(phy-library-min.o)
                0x08009db0                ST_RadioEnableAddressFiltering
 .text.ST_RadioSetEdCcaThreshold
                0x08009db4        0x4 ../../../cpu/stm32w108/simplemac/library/simplemac-library-gnu.a(phy-library-min.o)
                0x08009db4                ST_RadioSetEdCcaThreshold
 .text.stmRadioTransmitCompleteCallback
                0x08009db8        0x4 ../../../cpu/stm32w108/simplemac/library/simplemac-library-gnu.a(phy-library-min.o)
                0x08009db8                stmRadioTransmitCompleteCallback
 .text.ST_RadioTransmit
                0x08009dbc        0x4 ../../../cpu/stm32w108/simplemac/library/simplemac-library-gnu.a(phy-library-min.o)
                0x08009dbc                ST_RadioTransmit
 .text.ST_RadioSetChannel
                0x08009dc0        0x4 ../../../cpu/stm32w108/simplemac/library/simplemac-library-gnu.a(phy-library-min.o)
                0x08009dc0                ST_RadioSetChannel
 .text.ST_RadioSleep
                0x08009dc4        0x4 ../../../cpu/stm32w108/simplemac/library/simplemac-library-gnu.a(phy-library-min.o)
                0x08009dc4                ST_RadioSleep
 .text.ST_RadioWake
                0x08009dc8        0x4 ../../../cpu/stm32w108/simplemac/library/simplemac-library-gnu.a(phy-library-min.o)
                0x08009dc8                ST_RadioWake
 .text.ST_RadioInit
                0x08009dcc       0x1c ../../../cpu/stm32w108/simplemac/library/simplemac-library-gnu.a(phy-library-min.o)
                0x08009dcc                ST_RadioInit
 .text.stmLoadKeyIntoCore
                0x08009de8       0x4c ../../../cpu/stm32w108/simplemac/library/simplemac-library-gnu.a(aes-min.o)
                0x08009de8                stmLoadKeyIntoCore
 .text.stmStandAloneEncryptBlock
                0x08009e34       0x68 ../../../cpu/stm32w108/simplemac/library/simplemac-library-gnu.a(aes-min.o)
                0x08009e34                stmStandAloneEncryptBlock
 .text.stmGetKeyFromCore
                0x08009e9c       0x4c ../../../cpu/stm32w108/simplemac/library/simplemac-library-gnu.a(aes-min.o)
                0x08009e9c                stmGetKeyFromCore
 .text.stmAesEncrypt
                0x08009ee8       0x32 ../../../cpu/stm32w108/simplemac/library/simplemac-library-gnu.a(aes-min.o)
                0x08009ee8                stmAesEncrypt
 *fill*         0x08009f1a        0x2 00
 .text.stmInitEui64
                0x08009f1c       0x18 ../../../cpu/stm32w108/simplemac/library/simplemac-library-gnu.a(eui64-min.o)
                0x08009f1c                stmInitEui64
 .text.stmStoreInt32u
                0x08009f34       0x22 ../../../cpu/stm32w108/simplemac/library/simplemac-library-gnu.a(misc-min.o)
                0x08009f34                stmStoreInt32u
 .text.stmFetchInt32u
                0x08009f56       0x2a ../../../cpu/stm32w108/simplemac/library/simplemac-library-gnu.a(misc-min.o)
                0x08009f56                stmFetchInt32u
 .text.stmRadioResetAndEnableReceive
                0x08009f80       0x48 ../../../cpu/stm32w108/simplemac/library/simplemac-library-gnu.a(phy-min.o)
                0x08009f80                stmRadioResetAndEnableReceive
 .text.stmGetMacTimer
                0x08009fc8        0xc ../../../cpu/stm32w108/simplemac/library/simplemac-library-gnu.a(phy-min.o)
                0x08009fc8                stmGetMacTimer
 .text.readAdcTemperatureChannel
                0x08009fd4       0x28 ../../../cpu/stm32w108/simplemac/library/simplemac-library-gnu.a(phy-min.o)
 .text.stmRadioBootPhySpecific
                0x08009ffc       0x90 ../../../cpu/stm32w108/simplemac/library/simplemac-library-gnu.a(phy-min.o)
                0x08009ffc                stmRadioBootPhySpecific
 .text.stmRadioGetRandomNumbers
                0x0800a08c       0x86 ../../../cpu/stm32w108/simplemac/library/simplemac-library-gnu.a(phy-min.o)
                0x0800a08c                stmRadioGetRandomNumbers
 *fill*         0x0800a112        0x2 00
 .text.processRxAddressReceiveCompleteIsr
                0x0800a114       0xec ../../../cpu/stm32w108/simplemac/library/simplemac-library-gnu.a(phy-min.o)
 .text.processRxPacketCompleteIsr
                0x0800a200      0x170 ../../../cpu/stm32w108/simplemac/library/simplemac-library-gnu.a(phy-min.o)
 .text.stmRadioReceiveIsr
                0x0800a370       0xf8 ../../../cpu/stm32w108/simplemac/library/simplemac-library-gnu.a(phy-min.o)
                0x0800a370                stmRadioReceiveIsr
 .text.stmRadioReadSerialReg
                0x0800a468       0x34 ../../../cpu/stm32w108/simplemac/library/simplemac-library-gnu.a(analogue-min.o)
                0x0800a468                stmRadioReadSerialReg
 .text.stmRadioWriteSerialReg
                0x0800a49c       0x50 ../../../cpu/stm32w108/simplemac/library/simplemac-library-gnu.a(analogue-min.o)
                0x0800a49c                stmRadioWriteSerialReg
 .text.setTxStepTime
                0x0800a4ec       0x4c ../../../cpu/stm32w108/simplemac/library/simplemac-library-gnu.a(analogue-min.o)
 .text.stGetTxPowerMode
                0x0800a538        0xc ../../../cpu/stm32w108/simplemac/library/simplemac-library-gnu.a(analogue-min.o)
                0x0800a538                stGetTxPowerMode
 .text.stSetRadioPower
                0x0800a544       0xfc ../../../cpu/stm32w108/simplemac/library/simplemac-library-gnu.a(analogue-min.o)
                0x0800a544                stSetRadioPower
 .text.stmRadioSetChannel
                0x0800a640      0x1b0 ../../../cpu/stm32w108/simplemac/library/simplemac-library-gnu.a(analogue-min.o)
                0x0800a640                stmRadioSetChannel
 .text.stSetTxPowerMode
                0x0800a7f0       0xc4 ../../../cpu/stm32w108/simplemac/library/simplemac-library-gnu.a(analogue-min.o)
                0x0800a7f0                stSetTxPowerMode
 .text.stmRadioCalibrateCellBias
                0x0800a8b4       0xbc ../../../cpu/stm32w108/simplemac/library/simplemac-library-gnu.a(analogue-cell-bias-min.o)
                0x0800a8b4                stmRadioCalibrateCellBias
 .text.stmRadioCalibrateChannelFilter
                0x0800a970       0x2c ../../../cpu/stm32w108/simplemac/library/simplemac-library-gnu.a(analogue-filter-min.o)
                0x0800a970                stmRadioCalibrateChannelFilter
 .text.adjustLna
                0x0800a99c       0x12 ../../../cpu/stm32w108/simplemac/library/simplemac-library-gnu.a(analogue-lna-min.o)
 *fill*         0x0800a9ae        0x2 00
 .text.stmRadioCalibrateLna
                0x0800a9b0      0x2fc ../../../cpu/stm32w108/simplemac/library/simplemac-library-gnu.a(analogue-lna-min.o)
                0x0800a9b0                stmRadioCalibrateLna
 .text.vcoTuneModDacError
                0x0800acac       0x6c ../../../cpu/stm32w108/simplemac/library/simplemac-library-gnu.a(analogue-mod-dac-min.o)
 .text.adjustModulationDac
                0x0800ad18       0x14 ../../../cpu/stm32w108/simplemac/library/simplemac-library-gnu.a(analogue-mod-dac-min.o)
                0x0800ad18                adjustModulationDac
 .text.stmRadioCalibrateModulationDac
                0x0800ad2c      0x128 ../../../cpu/stm32w108/simplemac/library/simplemac-library-gnu.a(analogue-mod-dac-min.o)
                0x0800ad2c                stmRadioCalibrateModulationDac
 .text.adjustVco
                0x0800ae54       0x28 ../../../cpu/stm32w108/simplemac/library/simplemac-library-gnu.a(analogue-vco-min.o)
 .text.stmRadioCalibrateVco
                0x0800ae7c       0x98 ../../../cpu/stm32w108/simplemac/library/simplemac-library-gnu.a(analogue-vco-min.o)
                0x0800ae7c                stmRadioCalibrateVco
 .text.getTxSfdTime
                0x0800af14       0x14 ../../../cpu/stm32w108/simplemac/library/simplemac-library-gnu.a(phy-common-min.o)
 .text.stmRadioUnpackChipErrors
                0x0800af28       0x12 ../../../cpu/stm32w108/simplemac/library/simplemac-library-gnu.a(phy-common-min.o)
                0x0800af28                stmRadioUnpackChipErrors
 *fill*         0x0800af3a        0x2 00
 .text.stmRadioGetPowerStatus
                0x0800af3c        0xc ../../../cpu/stm32w108/simplemac/library/simplemac-library-gnu.a(phy-common-min.o)
                0x0800af3c                stmRadioGetPowerStatus
 .text.stmRadioEnableAddressMatching
                0x0800af48       0x28 ../../../cpu/stm32w108/simplemac/library/simplemac-library-gnu.a(phy-common-min.o)
                0x0800af48                stmRadioEnableAddressMatching
 .text.stmRadioEnableAutoAck
                0x0800af70       0x28 ../../../cpu/stm32w108/simplemac/library/simplemac-library-gnu.a(phy-common-min.o)
                0x0800af70                stmRadioEnableAutoAck
 .text.stmPhySetEui64
                0x0800af98       0x48 ../../../cpu/stm32w108/simplemac/library/simplemac-library-gnu.a(phy-common-min.o)
                0x0800af98                stmPhySetEui64
 .text.stmPhySetCoordinator
                0x0800afe0       0x28 ../../../cpu/stm32w108/simplemac/library/simplemac-library-gnu.a(phy-common-min.o)
                0x0800afe0                stmPhySetCoordinator
 .text.stmSetNodeId
                0x0800b008       0x14 ../../../cpu/stm32w108/simplemac/library/simplemac-library-gnu.a(phy-common-min.o)
                0x0800b008                stmSetNodeId
 .text.stmSetPanId
                0x0800b01c       0x14 ../../../cpu/stm32w108/simplemac/library/simplemac-library-gnu.a(phy-common-min.o)
                0x0800b01c                stmSetPanId
 .text.stmRadioEnableReceiveCrc
                0x0800b030        0xc ../../../cpu/stm32w108/simplemac/library/simplemac-library-gnu.a(phy-common-min.o)
                0x0800b030                stmRadioEnableReceiveCrc
 .text.stmRadioReceiveCrcEnabled
                0x0800b03c        0xc ../../../cpu/stm32w108/simplemac/library/simplemac-library-gnu.a(phy-common-min.o)
                0x0800b03c                stmRadioReceiveCrcEnabled
 .text.stmRadioEnableOverflowNotification
                0x0800b048       0x28 ../../../cpu/stm32w108/simplemac/library/simplemac-library-gnu.a(phy-common-min.o)
                0x0800b048                stmRadioEnableOverflowNotification
 .text.stmRadioEnableSfdSentNotification
                0x0800b070       0x30 ../../../cpu/stm32w108/simplemac/library/simplemac-library-gnu.a(phy-common-min.o)
                0x0800b070                stmRadioEnableSfdSentNotification
 .text.stmRadioEnablePacketTrace
                0x0800b0a0       0x28 ../../../cpu/stm32w108/simplemac/library/simplemac-library-gnu.a(phy-common-min.o)
                0x0800b0a0                stmRadioEnablePacketTrace
 .text.stmRadioSetEdCcaThreshold
                0x0800b0c8       0x1c ../../../cpu/stm32w108/simplemac/library/simplemac-library-gnu.a(phy-common-min.o)
                0x0800b0c8                stmRadioSetEdCcaThreshold
 .text.stmRadioGetCca
                0x0800b0e4       0x44 ../../../cpu/stm32w108/simplemac/library/simplemac-library-gnu.a(phy-common-min.o)
                0x0800b0e4                stmRadioGetCca
 .text.stmRadioWakeUp
                0x0800b128       0x78 ../../../cpu/stm32w108/simplemac/library/simplemac-library-gnu.a(phy-common-min.o)
                0x0800b128                stmRadioWakeUp
 .text.stmRadioSleep
                0x0800b1a0       0x94 ../../../cpu/stm32w108/simplemac/library/simplemac-library-gnu.a(phy-common-min.o)
                0x0800b1a0                stmRadioSleep
 .text.stmRadioInit
                0x0800b234      0x148 ../../../cpu/stm32w108/simplemac/library/simplemac-library-gnu.a(phy-common-min.o)
                0x0800b234                stmRadioInit
 .text.stmDroppedAckStallWorkaround
                0x0800b37c       0x3c ../../../cpu/stm32w108/simplemac/library/simplemac-library-gnu.a(phy-common-min.o)
                0x0800b37c                stmDroppedAckStallWorkaround
 .text.getRandomBackoff
                0x0800b3b8       0x3c ../../../cpu/stm32w108/simplemac/library/simplemac-library-gnu.a(phy-common-min.o)
                0x0800b3b8                getRandomBackoff
 .text.stmRadioTransmitIsr
                0x0800b3f4      0x154 ../../../cpu/stm32w108/simplemac/library/simplemac-library-gnu.a(phy-common-min.o)
                0x0800b3f4                stmRadioTransmitIsr
 .text.stmRadioTransmit
                0x0800b548       0xd8 ../../../cpu/stm32w108/simplemac/library/simplemac-library-gnu.a(phy-common-min.o)
                0x0800b548                stmRadioTransmit
 .text.printf   0x0800b620       0x1c ../../../cpu/stm32w108/lib/e_stdio_intonly_thumb2.a(_SP_printf.o)
                0x0800b620                printf
 .text._vfiprintf_r
                0x0800b63c      0x678 ../../../cpu/stm32w108/lib/e_stdio_intonly_thumb2.a(_SP_vfprintf.o)
                0x0800b63c                _vfiprintf_r
 .text.vfiprintf
                0x0800bcb4       0x1c ../../../cpu/stm32w108/lib/e_stdio_intonly_thumb2.a(_SP_vfprintf.o)
                0x0800bcb4                vfiprintf
 .text.puts     0x0800bcd0       0x24 ../../../cpu/stm32w108/lib/e_stdio_intonly_thumb2.a(_SP_puts.o)
                0x0800bcd0                puts
 .text._SMALL_PRINTF_puts
                0x0800bcf4       0x4c ../../../cpu/stm32w108/lib/e_stdio_intonly_thumb2.a(_SP_puts.o)
                0x0800bcf4                _SMALL_PRINTF_puts
 .text._wcsrtombs_r
                0x0800bd40       0x5c ../../../cpu/stm32w108/lib/e_stdio_intonly_thumb2.a(small_wcsrtombs.o)
                0x0800bd40                _wcsrtombs_r
 .text._wcrtomb_r
                0x0800bd9c        0x4 ../../../cpu/stm32w108/lib/e_stdio_intonly_thumb2.a(small_wcrtomb.o)
                0x0800bd9c                _wcrtomb_r
 .text.determineState
                0x0800bda0       0x8c contiki-mbxxx.a(nvm.o)
 .text.erasePage
                0x0800be2c       0x2a contiki-mbxxx.a(nvm.o)
 *fill*         0x0800be56        0x2 00
 .text.halCommonReadFromNvm
                0x0800be58       0xb4 contiki-mbxxx.a(nvm.o)
                0x0800be58                halCommonReadFromNvm
 .text.halCommonWriteToNvm
                0x0800bf0c      0x288 contiki-mbxxx.a(nvm.o)
                0x0800bf0c                halCommonWriteToNvm
 *(.rodata)
 .rodata        0x0800c194       0x18 stm-sensor.co
                0x0800c194                acc_sensor
                0x0800c1a4                autostart_processes
 .rodata        0x0800c1ac       0x1c contiki-mbxxx.a(nullmac.o)
                0x0800c1ac                nullmac_driver
 .rodata        0x0800c1c8       0x20 contiki-mbxxx.a(sicslowmac.o)
                0x0800c1c8                sicslowmac_driver
 .rodata        0x0800c1e8       0x20 contiki-mbxxx.a(sicslowpan.o)
                0x0800c1ec                unc_ctxconf
                0x0800c1f0                unc_llconf
                0x0800c1f4                llprefix
                0x0800c1f8                unc_mxconf
                0x0800c1fc                sicslowpan_driver
 .rodata        0x0800c208       0x10 contiki-mbxxx.a(button-sensor.o)
                0x0800c208                button_sensor
 .rodata        0x0800c218       0x10 contiki-mbxxx.a(temperature-sen)
                0x0800c218                temperature_sensor
 .rodata        0x0800c228      0x1f8 contiki-mbxxx.a(board.o)
                0x0800c250                IDZ401V1
                0x0800c26c                LedsMB851A
                0x0800c27c                infraRedLedMB851A
                0x0800c284                LedsMB954A
                0x0800c294                LedsIDZ401V1
                0x0800c29c                ButtonsMB851A
                0x0800c2a4                ButtonsMB954A
                0x0800c2ac                ButtonsMB950A
                0x0800c2d4                ButtonsMB951A
                0x0800c2dc                stlm20PB7noDiv
                0x0800c2dc                ButtonsIDZ401V1
                0x0800c2e4                stlm20PA4noDiv
                0x0800c2ec                stlm20PA4withDiv
                0x0800c2f4                memsSensor
                0x0800c2fc                ioMB851A
                0x0800c304                ioMB954A
                0x0800c30c                ioMB950A
                0x0800c314                ioMB951A
                0x0800c31c                ioIDZ401V1
                0x0800c324                MB851A
                0x0800c340                MB851B
                0x0800c35c                MB851C
                0x0800c378                MB851D
                0x0800c394                MB954A
                0x0800c3b0                MB954B
                0x0800c3cc                MB954C
                0x0800c3e8                MB950A
                0x0800c404                MB951A
 .rodata        0x0800c420       0x30 contiki-mbxxx.a(stm32w-radio.o)
                0x0800c420                radioTransmitConfig
                0x0800c428                stm32w_radio_driver
 .rodata        0x0800c450        0xe contiki-mbxxx.a(adc.o)
 *fill*         0x0800c45e        0x2 00
 .rodata        0x0800c460       0x18 contiki-mbxxx.a(micro-common.o)
 .rodata        0x0800c478       0x40 contiki-mbxxx.a(mfg-token.o)
                0x0800c480                TOKEN_MFG_CHIP_DATA
                0x0800c482                TOKEN_MFG_PART_DATA
                0x0800c484                TOKEN_MFG_TESTER_DATA
                0x0800c486                TOKEN_MFG_ST_EUI_64
                0x0800c488                TOKEN_MFG_ANALOG_TRIM_NORMAL
                0x0800c48a                TOKEN_MFG_ANALOG_TRIM_BOOST
                0x0800c48c                TOKEN_MFG_ANALOG_TRIM_BOTH
                0x0800c48e                TOKEN_MFG_REG_TRIM
                0x0800c490                TOKEN_MFG_1V8_REG_VOLTAGE
                0x0800c492                TOKEN_MFG_VREF_VOLTAGE
                0x0800c494                TOKEN_MFG_TEMP_CAL
                0x0800c496                TOKEN_MFG_FIB_VERSION
                0x0800c498                TOKEN_MFG_FIB_CHECKSUM
                0x0800c49a                TOKEN_MFG_FIB_OBS
                0x0800c49c                TOKEN_MFG_CIB_OBS
                0x0800c49e                TOKEN_MFG_CUSTOM_VERSION
                0x0800c4a0                TOKEN_MFG_CUSTOM_EUI_64
                0x0800c4a2                TOKEN_MFG_STRING
                0x0800c4a4                TOKEN_MFG_BOARD_NAME
                0x0800c4a6                TOKEN_MFG_MANUF_ID
                0x0800c4a8                TOKEN_MFG_PHY_CONFIG
                0x0800c4aa                TOKEN_MFG_BOOTLOAD_AES_KEY
                0x0800c4ac                TOKEN_MFG_EZSP_STORAGE
                0x0800c4ae                TOKEN_MFG_ASH_CONFIG
                0x0800c4b0                TOKEN_MFG_CBKE_DATA
                0x0800c4b2                TOKEN_MFG_INSTALLATION_CODE
                0x0800c4b4                TOKEN_MFG_OSC24M_BIAS_TRIM
                0x0800c4b6                TOKEN_MFG_EUI_64
 .rodata        0x0800c4b8        0x8 contiki-mbxxx.a(flash.o)
 .rodata        0x0800c4c0        0x4 contiki-mbxxx.a(crt-stm32w108.o)
 .rodata        0x0800c4c4        0x8 contiki-mbxxx.a(rimeaddr.o)
                0x0800c4c4                rimeaddr_null
 .rodata        0x0800c4cc        0x2 contiki-mbxxx.a(frame802154.o)
 *fill*         0x0800c4ce        0x2 00
 .rodata        0x0800c4d0        0x8 contiki-mbxxx.a(framer-802154.o)
                0x0800c4d0                framer_802154
 .rodata        0x0800c4d8       0x10 contiki-mbxxx.a(contact-sensor.)
                0x0800c4d8                contact_sensor
 .rodata        0x0800c4e8       0x20 ../../../cpu/stm32w108/lib/e_stdio_intonly_thumb2.a(_SP_vfprintf.o)
 *(.rodata*)
 .rodata.str1.1
                0x0800c508      0x189 stm-sensor.co
                                0x18b (size before relaxing)
 .rodata.str1.1
                0x0800c691        0x8 contiki-mbxxx.a(nullmac.o)
 .rodata.str1.1
                0x0800c699        0xb contiki-mbxxx.a(sicslowmac.o)
 .rodata.str1.1
                0x0800c6a4        0xc contiki-mbxxx.a(etimer.o)
 .rodata.str1.1
                0x0800c6b0        0xb contiki-mbxxx.a(sicslowpan.o)
 .rodata.str1.1
                0x0800c6bb        0xd contiki-mbxxx.a(tcpip.o)
 .rodata.str1.1
                0x0800c6c8       0x1a contiki-mbxxx.a(uip-debug.o)
 .rodata.str1.1
                0x0800c6e2        0x7 contiki-mbxxx.a(button-sensor.o)
 .rodata.str1.1
                0x0800c6e9        0xc contiki-mbxxx.a(temperature-sen)
 .rodata.str1.1
                0x0800c6f5      0x1b6 contiki-mbxxx.a(board.o)
                                0x1bc (size before relaxing)
 .rodata.str1.1
                0x0800c8ab       0x14 contiki-mbxxx.a(stm32w-radio.o)
 .rodata.str1.1
                0x0800c8bf        0xf contiki-mbxxx.a(ctimer.o)
 .rodata.str1.1
                0x0800c8ce        0x8 contiki-mbxxx.a(sensors.o)
 .rodata.str1.1
                0x0800c8d6       0xcb contiki-mbxxx.a(contiki-main.o)
                                 0xd1 (size before relaxing)
 .rodata.str1.1
                0x0800c9a1        0xe contiki-mbxxx.a(serial-line.o)
 .rodata.str1.1
                0x0800c9af        0x8 contiki-mbxxx.a(contact-sensor.)
 *fill*         0x0800c9b7        0x1 00
 .rodata.stmPowerLevel
                0x0800c9b8       0x20 ../../../cpu/stm32w108/simplemac/library/simplemac-library-gnu.a(analogue-min.o)
                0x0800c9b8                stmPowerLevel
 .rodata.powerLevelSettings
                0x0800c9d8        0x8 ../../../cpu/stm32w108/simplemac/library/simplemac-library-gnu.a(analogue-min.o)
                0x0800c9d8                powerLevelSettings
 .rodata.stmChannelSettings
                0x0800c9e0       0x40 ../../../cpu/stm32w108/simplemac/library/simplemac-library-gnu.a(analogue-min.o)
                0x0800c9e0                stmChannelSettings
 .rodata.bothTokSerialRegAddress
                0x0800ca20        0x8 ../../../cpu/stm32w108/simplemac/library/simplemac-library-gnu.a(analogue-cell-bias-min.o)
                0x0800ca20                bothTokSerialRegAddress
 .rodata.normalOrBoostTokSerialRegAddress
                0x0800ca28        0xc ../../../cpu/stm32w108/simplemac/library/simplemac-library-gnu.a(analogue-cell-bias-min.o)
                0x0800ca28                normalOrBoostTokSerialRegAddress
 .rodata.str1.1
                0x0800ca34       0x43 ../../../cpu/stm32w108/lib/e_stdio_intonly_thumb2.a(_SP_vfprintf.o)
 *fill*         0x0800ca77        0x1 00
 .rodata.str1.4
                0x0800ca78        0x4 /home/prabha/Sourcery_G++_Lite/bin/../lib/gcc/arm-none-eabi/4.5.2/../../../../arm-none-eabi/lib/thumb2/libc.a(lib_a-impure.o)
 *(.glue_7)
 .glue_7        0x00000000        0x0 linker stubs
 *(.glue_7t)
 .glue_7t       0x00000000        0x0 linker stubs
                0x0800ca7c                . = ALIGN (0x4)
                0x0800ca7c                _etext = .
                0x0800ca7c                _sidata = _etext

.vfp11_veneer   0x0800ca7c        0x0
 .vfp11_veneer  0x00000000        0x0 linker stubs

.v4_bx          0x0800ca7c        0x0
 .v4_bx         0x00000000        0x0 linker stubs

NVM             0x0801f800      0x800
 *(NVM)
 NVM            0x0801f800      0x800 contiki-mbxxx.a(nvm.o)
                0x0801f800                nvmStorageLeft
                0x0801fc00                nvmStorageRight

FAT             0x08040000       0x2c
                0x08040000                . = ALIGN (0x4)
 *(FAT)
 FAT            0x08040000       0x2c contiki-mbxxx.a(crt-stm32w108.o)
                0x08040000                halFixedAddressTable
                0x0804002c                . = ALIGN (0x4)

.data           0x20000500      0x25c load address 0x0800ca7c
                0x20000500                . = ALIGN (0x4)
                0x20000500                _sdata = .
 *(.data)
 .data          0x20000500       0x20 stm-sensor.co
                0x20000500                discovery_process
                0x20000510                wsn_driver_process
 .data          0x20000520       0x10 contiki-mbxxx.a(etimer.o)
                0x20000520                etimer_process
 .data          0x20000530       0x24 contiki-mbxxx.a(queuebuf.o)
 .data          0x20000554       0x10 contiki-mbxxx.a(tcpip.o)
                0x20000554                tcpip_process
 .data          0x20000564       0x28 contiki-mbxxx.a(uip-ds6-route.o)
 .data          0x2000058c       0x14 contiki-mbxxx.a(uip-ds6-nbr.o)
                0x2000058c                ds6_neighbors
 .data          0x200005a0        0x4 contiki-mbxxx.a(clock.o)
 .data          0x200005a4       0x14 contiki-mbxxx.a(stm32w-radio.o)
                0x200005a8                stm32w_radio_process
 .data          0x200005b8        0x4 contiki-mbxxx.a(micro.o)
 .data          0x200005bc        0x2 contiki-mbxxx.a(clocks.o)
                0x200005bc                biasTrim
 *fill*         0x200005be        0x2 00
 .data          0x200005c0       0x10 contiki-mbxxx.a(rpl-dag.o)
 .data          0x200005d0        0x1 contiki-mbxxx.a(rpl-icmp6.o)
 *fill*         0x200005d1        0x3 00
 .data          0x200005d4       0x1c contiki-mbxxx.a(rpl-mrhof.o)
                0x200005d4                rpl_mrhof
 .data          0x200005f0       0x10 contiki-mbxxx.a(ctimer.o)
                0x200005f0                ctimer_process
 .data          0x20000600        0xc contiki-mbxxx.a(nbr-table.o)
 .data          0x2000060c       0x10 contiki-mbxxx.a(sensors.o)
                0x2000060c                sensors_process
 .data          0x2000061c       0x20 contiki-mbxxx.a(contiki-main.o)
                0x2000061c                procinit
                0x20000628                sensors
 .data          0x2000063c       0x10 contiki-mbxxx.a(serial-line.o)
                0x2000063c                serial_line_process
 .data          0x2000064c       0xf4 /home/prabha/Sourcery_G++_Lite/bin/../lib/gcc/arm-none-eabi/4.5.2/../../../../arm-none-eabi/lib/thumb2/libc.a(lib_a-impure.o)
                0x2000064c                _impure_ptr
 *(.data.*)
 .data.stmRadioPower
                0x20000740        0x1 ../../../cpu/stm32w108/simplemac/library/simplemac-library-gnu.a(analogue-min.o)
                0x20000740                stmRadioPower
 *fill*         0x20000741        0x1 00
 .data.stmRadioTxPowerMode
                0x20000742        0x2 ../../../cpu/stm32w108/simplemac/library/simplemac-library-gnu.a(analogue-min.o)
                0x20000742                stmRadioTxPowerMode
 .data.stmRadioChannel
                0x20000744        0x1 ../../../cpu/stm32w108/simplemac/library/simplemac-library-gnu.a(analogue-min.o)
                0x20000744                stmRadioChannel
 .data.stmVcoAutoTuneEnabled
                0x20000745        0x1 ../../../cpu/stm32w108/simplemac/library/simplemac-library-gnu.a(analogue-min.o)
                0x20000745                stmVcoAutoTuneEnabled
 *fill*         0x20000746        0x2 00
 .data.boostTxPowerMax
                0x20000748        0x8 ../../../cpu/stm32w108/simplemac/library/simplemac-library-gnu.a(analogue-min.o)
                0x20000748                boostTxPowerMax
 .data.stmTxStepTimeAltRfPath
                0x20000750        0x1 ../../../cpu/stm32w108/simplemac/library/simplemac-library-gnu.a(analogue-min.o)
                0x20000750                stmTxStepTimeAltRfPath
 .data.edCcaThreshold
                0x20000751        0x1 ../../../cpu/stm32w108/simplemac/library/simplemac-library-gnu.a(phy-common-min.o)
 .data.stmLocalPanId
                0x20000752        0x2 ../../../cpu/stm32w108/simplemac/library/simplemac-library-gnu.a(phy-common-min.o)
 .data.autoAckEnabled
                0x20000754        0x1 ../../../cpu/stm32w108/simplemac/library/simplemac-library-gnu.a(phy-common-min.o)
 .data.radioCheckCrc
                0x20000755        0x1 ../../../cpu/stm32w108/simplemac/library/simplemac-library-gnu.a(phy-common-min.o)
                0x20000755                radioCheckCrc
 .data.addressMatchingEnabled
                0x20000756        0x1 ../../../cpu/stm32w108/simplemac/library/simplemac-library-gnu.a(phy-common-min.o)
 *fill*         0x20000757        0x1 00
 .data.stmLocalNodeId
                0x20000758        0x2 ../../../cpu/stm32w108/simplemac/library/simplemac-library-gnu.a(phy-common-min.o)
 .data.ptiEnabled
                0x2000075a        0x1 ../../../cpu/stm32w108/simplemac/library/simplemac-library-gnu.a(phy-common-min.o)
 .data.radioCurrentPowerStatus
                0x2000075b        0x1 ../../../cpu/stm32w108/simplemac/library/simplemac-library-gnu.a(phy-common-min.o)
                0x2000075b                radioCurrentPowerStatus
                0x2000075c                . = ALIGN (0x4)
                0x2000075c                _edata = .

.bss            0x2000075c     0x14d0 load address 0x0800ccd8
                0x2000075c                . = ALIGN (0x4)
                0x2000075c                _sbss = .
 *(.bss)
 .bss           0x2000075c      0x1e0 stm-sensor.co
 .bss           0x2000093c        0x1 contiki-mbxxx.a(sicslowmac.o)
 *fill*         0x2000093d        0x3 00
 .bss           0x20000940       0xe0 contiki-mbxxx.a(process.o)
                0x20000944                process_list
                0x20000948                process_current
 .bss           0x20000a20        0x8 contiki-mbxxx.a(etimer.o)
 .bss           0x20000a28       0xc0 contiki-mbxxx.a(packetbuf.o)
 .bss           0x20000ae8      0x1b4 contiki-mbxxx.a(queuebuf.o)
 .bss           0x20000c9c       0xd0 contiki-mbxxx.a(sicslowpan.o)
 .bss           0x20000d6c       0x60 contiki-mbxxx.a(tcpip.o)
 .bss           0x20000dcc      0x3a4 contiki-mbxxx.a(uip-ds6-route.o)
 .bss           0x20001170       0x90 contiki-mbxxx.a(uip-ds6-nbr.o)
 .bss           0x20001200       0x20 contiki-mbxxx.a(uip-ds6.o)
 .bss           0x20001220       0x14 contiki-mbxxx.a(uip-nd6.o)
 .bss           0x20001234       0x10 contiki-mbxxx.a(uip6.o)
                0x20001234                uip_ext_opt_offset
                0x20001235                uip_ext_len
                0x2000123e                uip_ext_bitmap
 .bss           0x20001244        0x8 contiki-mbxxx.a(button-sensor.o)
 .bss           0x2000124c        0x4 contiki-mbxxx.a(temperature-sen)
 .bss           0x20001250        0x1 contiki-mbxxx.a(mems.o)
 *fill*         0x20001251        0x3 00
 .bss           0x20001254        0x4 contiki-mbxxx.a(board.o)
                0x20001254                boardDescription
 .bss           0x20001258        0x2 contiki-mbxxx.a(leds.o)
 *fill*         0x2000125a        0x2 00
 .bss           0x2000125c        0x8 contiki-mbxxx.a(clock.o)
 .bss           0x20001264      0x186 contiki-mbxxx.a(stm32w-radio.o)
 *fill*         0x200013ea        0x2 00
 .bss           0x200013ec        0xc contiki-mbxxx.a(rtimer-arch.o)
 .bss           0x200013f8       0x1e contiki-mbxxx.a(adc.o)
 *fill*         0x20001416        0x2 00
 .bss           0x20001418        0x4 contiki-mbxxx.a(sleep.o)
 .bss           0x2000141c        0x1 contiki-mbxxx.a(flash.o)
                0x2000141c                flashEraseIsActive
 .bss           0x2000141d        0x5 contiki-mbxxx.a(context-switch.)
                0x2000141d                halPendSvSaveContext
                0x2000141e                savedMSP
 .bss           0x20001422        0x2 contiki-mbxxx.a(framer-802154.o)
 .bss           0x20001424       0x40 contiki-mbxxx.a(rpl-dag.o)
 .bss           0x20001464       0x24 contiki-mbxxx.a(rpl-timers.o)
 .bss           0x20001488        0x8 contiki-mbxxx.a(ctimer.o)
 .bss           0x20001490        0x4 contiki-mbxxx.a(rtimer.o)
 .bss           0x20001494       0x64 contiki-mbxxx.a(nbr-table.o)
 .bss           0x200014f8       0x10 contiki-mbxxx.a(uip-icmp6.o)
 .bss           0x20001508        0xc contiki-mbxxx.a(sensors.o)
 .bss           0x20001514        0x8 contiki-mbxxx.a(uart1.o)
 .bss           0x2000151c      0x110 contiki-mbxxx.a(serial-line.o)
 *(.bss.*)
 .bss.currentReceiveChannel
                0x2000162c        0x1 ../../../cpu/stm32w108/simplemac/library/simplemac-library-gnu.a(phy-min.o)
 *fill*         0x2000162d        0x3 00
 .bss.rxBuffer  0x20001630      0x114 ../../../cpu/stm32w108/simplemac/library/simplemac-library-gnu.a(phy-min.o)
 .bss.framePendingSetInOutgoingAck
                0x20001744        0x4 ../../../cpu/stm32w108/simplemac/library/simplemac-library-gnu.a(phy-min.o)
 .bss.previousTemperature
                0x20001748        0x2 ../../../cpu/stm32w108/simplemac/library/simplemac-library-gnu.a(phy-min.o)
 .bss.paPresent
                0x2000174a        0x1 ../../../cpu/stm32w108/simplemac/library/simplemac-library-gnu.a(analogue-min.o)
 *fill*         0x2000174b        0x1 00
 .bss.lnaForceReCal
                0x2000174c        0x2 ../../../cpu/stm32w108/simplemac/library/simplemac-library-gnu.a(analogue-lna-min.o)
                0x2000174c                lnaForceReCal
 .bss.modDacForceReCal
                0x2000174e        0x2 ../../../cpu/stm32w108/simplemac/library/simplemac-library-gnu.a(analogue-mod-dac-min.o)
                0x2000174e                modDacForceReCal
 .bss.vcoLastTuneValueAvailable
                0x20001750        0x1 ../../../cpu/stm32w108/simplemac/library/simplemac-library-gnu.a(analogue-vco-min.o)
                0x20001750                vcoLastTuneValueAvailable
 .bss.lastVcoValue
                0x20001751        0x1 ../../../cpu/stm32w108/simplemac/library/simplemac-library-gnu.a(analogue-vco-min.o)
 .bss.lastVcoCalChannel
                0x20001752        0x1 ../../../cpu/stm32w108/simplemac/library/simplemac-library-gnu.a(analogue-vco-min.o)
 .bss.stmRadioSfdSentCallbackEnabled
                0x20001753        0x1 ../../../cpu/stm32w108/simplemac/library/simplemac-library-gnu.a(phy-common-min.o)
 .bss.stmRadioOverflowCallbackEnabled
                0x20001754        0x1 ../../../cpu/stm32w108/simplemac/library/simplemac-library-gnu.a(phy-common-min.o)
 .bss.stmMfglibTransmitComplete
                0x20001755        0x1 ../../../cpu/stm32w108/simplemac/library/simplemac-library-gnu.a(phy-common-min.o)
                0x20001755                stmMfglibTransmitComplete
 .bss.lastBackoff
                0x20001756        0x2 ../../../cpu/stm32w108/simplemac/library/simplemac-library-gnu.a(phy-common-min.o)
                0x20001756                lastBackoff
 .bss.ccaAttempt
                0x20001758        0x1 ../../../cpu/stm32w108/simplemac/library/simplemac-library-gnu.a(phy-common-min.o)
                0x20001758                ccaAttempt
 .bss.deviceIsCoordinator
                0x20001759        0x1 ../../../cpu/stm32w108/simplemac/library/simplemac-library-gnu.a(phy-common-min.o)
 .bss.stmMfglibMode
                0x2000175a        0x1 ../../../cpu/stm32w108/simplemac/library/simplemac-library-gnu.a(phy-common-min.o)
                0x2000175a                stmMfglibMode
 *(COMMON)
 *fill*         0x2000175b        0x1 00
 COMMON         0x2000175c       0x50 contiki-mbxxx.a(packetbuf.o)
                0x2000175c                packetbuf_addrs
                0x2000177c                packetbuf_attrs
 COMMON         0x200017ac        0x8 contiki-mbxxx.a(sicslowpan.o)
                0x200017ac                frag_sender
 COMMON         0x200017b4        0x1 contiki-mbxxx.a(tcpip.o)
                0x200017b4                tcpip_event
 *fill*         0x200017b5        0x3 00
 COMMON         0x200017b8      0x174 contiki-mbxxx.a(uip-ds6.o)
                0x200017b8                uip_ds6_timer_ra
                0x200017c0                uip_ds6_if
                0x200018b8                uip_ds6_netif_addr_list_offset
                0x200018b9                uip_ds6_addr_size
                0x200018bc                uip_ds6_prefix_list
                0x2000191c                uip_ds6_timer_periodic
 COMMON         0x2000192c      0x208 contiki-mbxxx.a(uip6.o)
                0x2000192c                uip_len
                0x20001930                uip_sappdata
                0x20001934                uip_acc32
                0x20001938                uip_lladdr
                0x20001940                uip_aligned_buf
                0x200019cc                uip_flags
                0x200019d0                uip_next_hdr
                0x200019d4                uip_udp_conn
                0x200019d8                uip_appdata
                0x200019dc                uip_conn
                0x200019e0                uip_conns
                0x20001aa0                uip_listenports
                0x20001ab0                uip_slen
                0x20001ab4                uip_udp_conns
 COMMON         0x20001b34        0x1 contiki-mbxxx.a(stm32w-radio.o)
                0x20001b34                mac_retries_left
 COMMON         0x20001b35        0x8 contiki-mbxxx.a(rimeaddr.o)
                0x20001b35                rimeaddr_node_addr
 *fill*         0x20001b3d        0x3 00
 COMMON         0x20001b40       0xb4 contiki-mbxxx.a(rpl-dag.o)
                0x20001b40                default_instance
                0x20001b44                instance_table
 COMMON         0x20001bf4        0x1 contiki-mbxxx.a(sensors.o)
                0x20001bf4                sensors_event
 COMMON         0x20001bf5        0x5 contiki-mbxxx.a(contiki-main.o)
                0x20001bf5                sensors_flags
 COMMON         0x20001bfa        0x1 contiki-mbxxx.a(serial-line.o)
                0x20001bfa                serial_line_event_message
 *fill*         0x20001bfb        0x1 00
 COMMON         0x20001bfc        0x8 ../../../cpu/stm32w108/simplemac/library/simplemac-library-gnu.a(eui64-min.o)
                0x20001bfc                stmLocalEui64
 COMMON         0x20001c04       0x18 ../../../cpu/stm32w108/simplemac/library/simplemac-library-gnu.a(phy-min.o)
                0x20001c04                stmRxCRCFail
                0x20001c08                framePendingBitSetTime
                0x20001c0c                stmRadioReceiverGain
                0x20001c10                packetRxTime
                0x20001c14                stmRadioReceiverFrameStatus
                0x20001c16                stmIncomingMacHeaderLength
                0x20001c18                stmRxOverflow
                0x20001c1a                stmRxPacket
 COMMON         0x20001c1c       0x10 ../../../cpu/stm32w108/simplemac/library/simplemac-library-gnu.a(phy-common-min.o)
                0x20001c1c                framePending
                0x20001c1d                stmMacAckNeeded
                0x20001c20                extraAckWorkarounds
                0x20001c24                droppedAckWorkarounds
                0x20001c28                lastTxSfdTime
                0x20001c2c                . = ALIGN (0x4)
                0x20001c2c                _ebss = .
                0x20001c2c                PROVIDE (end, _ebss)
                0x20001c2c                PROVIDE (_end, _ebss)
                0x20001c2c                __exidx_start = .
                0x20001c2c                __exidx_end = .

/DISCARD/
 libc.a(*)
 libm.a(*)
 libgcc.a(*)

.stab
 *(.stab)

.stabstr
 *(.stabstr)

.stab.excl
 *(.stab.excl)

.stab.exclstr
 *(.stab.exclstr)

.stab.index
 *(.stab.index)

.stab.indexstr
 *(.stab.indexstr)

.ARM.attributes
                0x00000000       0x2f
 .ARM.attributes
                0x00000000       0x31 stm-sensor.co
 .ARM.attributes
                0x00000031       0x31 obj_mbxxx/symbols.o
 .ARM.attributes
                0x00000062       0x31 contiki-mbxxx.a(nullmac.o)
 .ARM.attributes
                0x00000093       0x31 contiki-mbxxx.a(sicslowmac.o)
 .ARM.attributes
                0x000000c4       0x31 contiki-mbxxx.a(process.o)
 .ARM.attributes
                0x000000f5       0x31 contiki-mbxxx.a(etimer.o)
 .ARM.attributes
                0x00000126       0x31 contiki-mbxxx.a(random.o)
 .ARM.attributes
                0x00000157       0x31 contiki-mbxxx.a(packetbuf.o)
 .ARM.attributes
                0x00000188       0x31 contiki-mbxxx.a(queuebuf.o)
 .ARM.attributes
                0x000001b9       0x31 contiki-mbxxx.a(sicslowpan.o)
 .ARM.attributes
                0x000001ea       0x31 contiki-mbxxx.a(tcpip.o)
 .ARM.attributes
                0x0000021b       0x31 contiki-mbxxx.a(uip-debug.o)
 .ARM.attributes
                0x0000024c       0x31 contiki-mbxxx.a(uip-ds6-route.o)
 .ARM.attributes
                0x0000027d       0x31 contiki-mbxxx.a(uip-ds6-nbr.o)
 .ARM.attributes
                0x000002ae       0x31 contiki-mbxxx.a(uip-ds6.o)
 .ARM.attributes
                0x000002df       0x31 contiki-mbxxx.a(uip-nd6.o)
 .ARM.attributes
                0x00000310       0x31 contiki-mbxxx.a(uip-udp-packet.)
 .ARM.attributes
                0x00000341       0x31 contiki-mbxxx.a(uip6.o)
 .ARM.attributes
                0x00000372       0x31 contiki-mbxxx.a(button-sensor.o)
 .ARM.attributes
                0x000003a3       0x31 contiki-mbxxx.a(temperature-sen)
 .ARM.attributes
                0x000003d4       0x31 contiki-mbxxx.a(mems.o)
 .ARM.attributes
                0x00000405       0x31 contiki-mbxxx.a(board.o)
 .ARM.attributes
                0x00000436       0x31 contiki-mbxxx.a(leds.o)
 .ARM.attributes
                0x00000467       0x31 contiki-mbxxx.a(clock.o)
 .ARM.attributes
                0x00000498       0x31 contiki-mbxxx.a(watchdog.o)
 .ARM.attributes
                0x000004c9       0x31 contiki-mbxxx.a(uart1-putchar.o)
 .ARM.attributes
                0x000004fa       0x31 contiki-mbxxx.a(stm32w-radio.o)
 .ARM.attributes
                0x0000052b       0x31 contiki-mbxxx.a(stm32w-systick.)
 .ARM.attributes
                0x0000055c       0x31 contiki-mbxxx.a(uip-arch.o)
 .ARM.attributes
                0x0000058d       0x31 contiki-mbxxx.a(rtimer-arch.o)
 .ARM.attributes
                0x000005be       0x31 contiki-mbxxx.a(adc.o)
 .ARM.attributes
                0x000005ef       0x31 contiki-mbxxx.a(micro.o)
 .ARM.attributes
                0x00000620       0x31 contiki-mbxxx.a(sleep.o)
 .ARM.attributes
                0x00000651       0x31 contiki-mbxxx.a(micro-common.o)
 .ARM.attributes
                0x00000682       0x31 contiki-mbxxx.a(micro-common-in)
 .ARM.attributes
                0x000006b3       0x31 contiki-mbxxx.a(clocks.o)
 .ARM.attributes
                0x000006e4       0x31 contiki-mbxxx.a(mfg-token.o)
 .ARM.attributes
                0x00000715       0x31 contiki-mbxxx.a(flash.o)
 .ARM.attributes
                0x00000746       0x31 contiki-mbxxx.a(rand.o)
 .ARM.attributes
                0x00000777       0x31 contiki-mbxxx.a(crt-stm32w108.o)
 .ARM.attributes
                0x000007a8       0x21 contiki-mbxxx.a(spmr.o)
 .ARM.attributes
                0x000007c9       0x21 contiki-mbxxx.a(context-switch.)
 .ARM.attributes
                0x000007ea       0x31 contiki-mbxxx.a(rimeaddr.o)
 .ARM.attributes
                0x0000081b       0x31 contiki-mbxxx.a(frame802154.o)
 .ARM.attributes
                0x0000084c       0x31 contiki-mbxxx.a(framer-802154.o)
 .ARM.attributes
                0x0000087d       0x31 contiki-mbxxx.a(rpl.o)
 .ARM.attributes
                0x000008ae       0x31 contiki-mbxxx.a(rpl-dag.o)
 .ARM.attributes
                0x000008df       0x31 contiki-mbxxx.a(rpl-icmp6.o)
 .ARM.attributes
                0x00000910       0x31 contiki-mbxxx.a(rpl-timers.o)
 .ARM.attributes
                0x00000941       0x31 contiki-mbxxx.a(rpl-mrhof.o)
 .ARM.attributes
                0x00000972       0x31 contiki-mbxxx.a(rpl-ext-header.)
 .ARM.attributes
                0x000009a3       0x31 contiki-mbxxx.a(memb.o)
 .ARM.attributes
                0x000009d4       0x31 contiki-mbxxx.a(timer.o)
 .ARM.attributes
                0x00000a05       0x31 contiki-mbxxx.a(list.o)
 .ARM.attributes
                0x00000a36       0x31 contiki-mbxxx.a(ctimer.o)
 .ARM.attributes
                0x00000a67       0x31 contiki-mbxxx.a(rtimer.o)
 .ARM.attributes
                0x00000a98       0x31 contiki-mbxxx.a(stimer.o)
 .ARM.attributes
                0x00000ac9       0x31 contiki-mbxxx.a(nbr-table.o)
 .ARM.attributes
                0x00000afa       0x31 contiki-mbxxx.a(uip-icmp6.o)
 .ARM.attributes
                0x00000b2b       0x31 contiki-mbxxx.a(sensors.o)
 .ARM.attributes
                0x00000b5c       0x31 contiki-mbxxx.a(contiki-main.o)
 .ARM.attributes
                0x00000b8d       0x31 contiki-mbxxx.a(leds-arch.o)
 .ARM.attributes
                0x00000bbe       0x31 contiki-mbxxx.a(uart1.o)
 .ARM.attributes
                0x00000bef       0x31 contiki-mbxxx.a(procinit.o)
 .ARM.attributes
                0x00000c20       0x31 contiki-mbxxx.a(autostart.o)
 .ARM.attributes
                0x00000c51       0x31 contiki-mbxxx.a(serial-line.o)
 .ARM.attributes
                0x00000c82       0x31 contiki-mbxxx.a(energest.o)
 .ARM.attributes
                0x00000cb3       0x31 contiki-mbxxx.a(ringbuf.o)
 .ARM.attributes
                0x00000ce4       0x31 contiki-mbxxx.a(netstack.o)
 .ARM.attributes
                0x00000d15       0x31 contiki-mbxxx.a(contact-sensor.)
 .ARM.attributes
                0x00000d46       0x31 ../../../cpu/stm32w108/simplemac/library/simplemac-library-gnu.a(phy-library-min.o)
 .ARM.attributes
                0x00000d77       0x31 ../../../cpu/stm32w108/simplemac/library/simplemac-library-gnu.a(aes-min.o)
 .ARM.attributes
                0x00000da8       0x31 ../../../cpu/stm32w108/simplemac/library/simplemac-library-gnu.a(eui64-min.o)
 .ARM.attributes
                0x00000dd9       0x31 ../../../cpu/stm32w108/simplemac/library/simplemac-library-gnu.a(misc-min.o)
 .ARM.attributes
                0x00000e0a       0x31 ../../../cpu/stm32w108/simplemac/library/simplemac-library-gnu.a(phy-min.o)
 .ARM.attributes
                0x00000e3b       0x31 ../../../cpu/stm32w108/simplemac/library/simplemac-library-gnu.a(analogue-min.o)
 .ARM.attributes
                0x00000e6c       0x31 ../../../cpu/stm32w108/simplemac/library/simplemac-library-gnu.a(analogue-cell-bias-min.o)
 .ARM.attributes
                0x00000e9d       0x31 ../../../cpu/stm32w108/simplemac/library/simplemac-library-gnu.a(analogue-filter-min.o)
 .ARM.attributes
                0x00000ece       0x31 ../../../cpu/stm32w108/simplemac/library/simplemac-library-gnu.a(analogue-lna-min.o)
 .ARM.attributes
                0x00000eff       0x31 ../../../cpu/stm32w108/simplemac/library/simplemac-library-gnu.a(analogue-mod-dac-min.o)
 .ARM.attributes
                0x00000f30       0x31 ../../../cpu/stm32w108/simplemac/library/simplemac-library-gnu.a(analogue-vco-min.o)
 .ARM.attributes
                0x00000f61       0x31 ../../../cpu/stm32w108/simplemac/library/simplemac-library-gnu.a(phy-common-min.o)
 .ARM.attributes
                0x00000f92       0x31 ../../../cpu/stm32w108/lib/e_stdio_intonly_thumb2.a(_SP_printf.o)
 .ARM.attributes
                0x00000fc3       0x31 ../../../cpu/stm32w108/lib/e_stdio_intonly_thumb2.a(_SP_vfprintf.o)
 .ARM.attributes
                0x00000ff4       0x31 ../../../cpu/stm32w108/lib/e_stdio_intonly_thumb2.a(_SP_puts.o)
 .ARM.attributes
                0x00001025       0x31 ../../../cpu/stm32w108/lib/e_stdio_intonly_thumb2.a(small_wcsrtombs.o)
 .ARM.attributes
                0x00001056       0x31 ../../../cpu/stm32w108/lib/e_stdio_intonly_thumb2.a(small_wcrtomb.o)
 .ARM.attributes
                0x00001087       0x31 contiki-mbxxx.a(nvm.o)
 .ARM.attributes
                0x000010b8       0x29 /home/prabha/Sourcery_G++_Lite/bin/../lib/gcc/arm-none-eabi/4.5.2/../../../../arm-none-eabi/lib/thumb2/libc.a(lib_a-impure.o)
 .ARM.attributes
                0x000010e1       0x29 /home/prabha/Sourcery_G++_Lite/bin/../lib/gcc/arm-none-eabi/4.5.2/../../../../arm-none-eabi/lib/thumb2/libc.a(lib_a-memchr.o)
 .ARM.attributes
                0x0000110a       0x29 /home/prabha/Sourcery_G++_Lite/bin/../lib/gcc/arm-none-eabi/4.5.2/../../../../arm-none-eabi/lib/thumb2/libc.a(lib_a-memcmp.o)
 .ARM.attributes
                0x00001133       0x29 /home/prabha/Sourcery_G++_Lite/bin/../lib/gcc/arm-none-eabi/4.5.2/../../../../arm-none-eabi/lib/thumb2/libc.a(lib_a-memcpy.o)
 .ARM.attributes
                0x0000115c       0x29 /home/prabha/Sourcery_G++_Lite/bin/../lib/gcc/arm-none-eabi/4.5.2/../../../../arm-none-eabi/lib/thumb2/libc.a(lib_a-memmove.o)
 .ARM.attributes
                0x00001185       0x29 /home/prabha/Sourcery_G++_Lite/bin/../lib/gcc/arm-none-eabi/4.5.2/../../../../arm-none-eabi/lib/thumb2/libc.a(lib_a-memset.o)
 .ARM.attributes
                0x000011ae       0x29 /home/prabha/Sourcery_G++_Lite/bin/../lib/gcc/arm-none-eabi/4.5.2/../../../../arm-none-eabi/lib/thumb2/libc.a(lib_a-strcmp.o)
 .ARM.attributes
                0x000011d7       0x29 /home/prabha/Sourcery_G++_Lite/bin/../lib/gcc/arm-none-eabi/4.5.2/../../../../arm-none-eabi/lib/thumb2/libc.a(lib_a-strlen.o)
 .ARM.attributes
                0x00001200       0x29 /home/prabha/Sourcery_G++_Lite/bin/../lib/gcc/arm-none-eabi/4.5.2/../../../../arm-none-eabi/lib/thumb2/libc.a(lib_a-strncmp.o)

.comment        0x00000000      0x300
 *(.comment)
 .comment       0x00000000       0x2a stm-sensor.co
                                 0x2b (size before relaxing)
 .comment       0x00000000       0x2b obj_mbxxx/symbols.o
 .comment       0x00000000       0x2b contiki-mbxxx.a(nullmac.o)
 .comment       0x00000000       0x2b contiki-mbxxx.a(sicslowmac.o)
 .comment       0x00000000       0x2b contiki-mbxxx.a(process.o)
 .comment       0x00000000       0x2b contiki-mbxxx.a(etimer.o)
 .comment       0x00000000       0x2b contiki-mbxxx.a(random.o)
 .comment       0x00000000       0x2b contiki-mbxxx.a(packetbuf.o)
 .comment       0x00000000       0x2b contiki-mbxxx.a(queuebuf.o)
 .comment       0x00000000       0x2b contiki-mbxxx.a(sicslowpan.o)
 .comment       0x00000000       0x2b contiki-mbxxx.a(tcpip.o)
 .comment       0x00000000       0x2b contiki-mbxxx.a(uip-debug.o)
 .comment       0x00000000       0x2b contiki-mbxxx.a(uip-ds6-route.o)
 .comment       0x00000000       0x2b contiki-mbxxx.a(uip-ds6-nbr.o)
 .comment       0x00000000       0x2b contiki-mbxxx.a(uip-ds6.o)
 .comment       0x00000000       0x2b contiki-mbxxx.a(uip-nd6.o)
 .comment       0x00000000       0x2b contiki-mbxxx.a(uip-udp-packet.)
 .comment       0x00000000       0x2b contiki-mbxxx.a(uip6.o)
 .comment       0x00000000       0x2b contiki-mbxxx.a(button-sensor.o)
 .comment       0x00000000       0x2b contiki-mbxxx.a(temperature-sen)
 .comment       0x00000000       0x2b contiki-mbxxx.a(mems.o)
 .comment       0x00000000       0x2b contiki-mbxxx.a(board.o)
 .comment       0x00000000       0x2b contiki-mbxxx.a(leds.o)
 .comment       0x00000000       0x2b contiki-mbxxx.a(clock.o)
 .comment       0x00000000       0x2b contiki-mbxxx.a(watchdog.o)
 .comment       0x00000000       0x2b contiki-mbxxx.a(uart1-putchar.o)
 .comment       0x00000000       0x2b contiki-mbxxx.a(stm32w-radio.o)
 .comment       0x00000000       0x2b contiki-mbxxx.a(stm32w-systick.)
 .comment       0x00000000       0x2b contiki-mbxxx.a(uip-arch.o)
 .comment       0x00000000       0x2b contiki-mbxxx.a(rtimer-arch.o)
 .comment       0x00000000       0x2b contiki-mbxxx.a(adc.o)
 .comment       0x00000000       0x2b contiki-mbxxx.a(micro.o)
 .comment       0x00000000       0x2b contiki-mbxxx.a(sleep.o)
 .comment       0x00000000       0x2b contiki-mbxxx.a(micro-common.o)
 .comment       0x00000000       0x2b contiki-mbxxx.a(micro-common-in)
 .comment       0x00000000       0x2b contiki-mbxxx.a(clocks.o)
 .comment       0x00000000       0x2b contiki-mbxxx.a(mfg-token.o)
 .comment       0x00000000       0x2b contiki-mbxxx.a(flash.o)
 .comment       0x00000000       0x2b contiki-mbxxx.a(rand.o)
 .comment       0x00000000       0x2b contiki-mbxxx.a(crt-stm32w108.o)
 .comment       0x00000000       0x2b contiki-mbxxx.a(rimeaddr.o)
 .comment       0x00000000       0x2b contiki-mbxxx.a(frame802154.o)
 .comment       0x00000000       0x2b contiki-mbxxx.a(framer-802154.o)
 .comment       0x00000000       0x2b contiki-mbxxx.a(rpl.o)
 .comment       0x00000000       0x2b contiki-mbxxx.a(rpl-dag.o)
 .comment       0x00000000       0x2b contiki-mbxxx.a(rpl-icmp6.o)
 .comment       0x00000000       0x2b contiki-mbxxx.a(rpl-timers.o)
 .comment       0x00000000       0x2b contiki-mbxxx.a(rpl-mrhof.o)
 .comment       0x00000000       0x2b contiki-mbxxx.a(rpl-ext-header.)
 .comment       0x00000000       0x2b contiki-mbxxx.a(memb.o)
 .comment       0x00000000       0x2b contiki-mbxxx.a(timer.o)
 .comment       0x00000000       0x2b contiki-mbxxx.a(list.o)
 .comment       0x00000000       0x2b contiki-mbxxx.a(ctimer.o)
 .comment       0x00000000       0x2b contiki-mbxxx.a(rtimer.o)
 .comment       0x00000000       0x2b contiki-mbxxx.a(stimer.o)
 .comment       0x00000000       0x2b contiki-mbxxx.a(nbr-table.o)
 .comment       0x00000000       0x2b contiki-mbxxx.a(uip-icmp6.o)
 .comment       0x00000000       0x2b contiki-mbxxx.a(sensors.o)
 .comment       0x00000000       0x2b contiki-mbxxx.a(contiki-main.o)
 .comment       0x00000000       0x2b contiki-mbxxx.a(leds-arch.o)
 .comment       0x00000000       0x2b contiki-mbxxx.a(uart1.o)
 .comment       0x00000000       0x2b contiki-mbxxx.a(procinit.o)
 .comment       0x00000000       0x2b contiki-mbxxx.a(autostart.o)
 .comment       0x00000000       0x2b contiki-mbxxx.a(serial-line.o)
 .comment       0x00000000       0x2b contiki-mbxxx.a(energest.o)
 .comment       0x00000000       0x2b contiki-mbxxx.a(ringbuf.o)
 .comment       0x00000000       0x2b contiki-mbxxx.a(netstack.o)
 .comment       0x00000000       0x2b contiki-mbxxx.a(contact-sensor.)
 .comment       0x0000002a       0x2b ../../../cpu/stm32w108/simplemac/library/simplemac-library-gnu.a(phy-library-min.o)
 .comment       0x00000055       0x2b ../../../cpu/stm32w108/simplemac/library/simplemac-library-gnu.a(aes-min.o)
 .comment       0x00000080       0x2b ../../../cpu/stm32w108/simplemac/library/simplemac-library-gnu.a(eui64-min.o)
 .comment       0x000000ab       0x2b ../../../cpu/stm32w108/simplemac/library/simplemac-library-gnu.a(misc-min.o)
 .comment       0x000000d6       0x2b ../../../cpu/stm32w108/simplemac/library/simplemac-library-gnu.a(phy-min.o)
 .comment       0x00000101       0x2b ../../../cpu/stm32w108/simplemac/library/simplemac-library-gnu.a(analogue-min.o)
 .comment       0x0000012c       0x2b ../../../cpu/stm32w108/simplemac/library/simplemac-library-gnu.a(analogue-cell-bias-min.o)
 .comment       0x00000157       0x2b ../../../cpu/stm32w108/simplemac/library/simplemac-library-gnu.a(analogue-filter-min.o)
 .comment       0x00000182       0x2b ../../../cpu/stm32w108/simplemac/library/simplemac-library-gnu.a(analogue-lna-min.o)
 .comment       0x000001ad       0x2b ../../../cpu/stm32w108/simplemac/library/simplemac-library-gnu.a(analogue-mod-dac-min.o)
 .comment       0x000001d8       0x2b ../../../cpu/stm32w108/simplemac/library/simplemac-library-gnu.a(analogue-vco-min.o)
 .comment       0x00000203       0x2b ../../../cpu/stm32w108/simplemac/library/simplemac-library-gnu.a(phy-common-min.o)
 .comment       0x0000022e       0x2a ../../../cpu/stm32w108/lib/e_stdio_intonly_thumb2.a(_SP_printf.o)
 .comment       0x00000258       0x2a ../../../cpu/stm32w108/lib/e_stdio_intonly_thumb2.a(_SP_vfprintf.o)
 .comment       0x00000282       0x2a ../../../cpu/stm32w108/lib/e_stdio_intonly_thumb2.a(_SP_puts.o)
 .comment       0x000002ac       0x2a ../../../cpu/stm32w108/lib/e_stdio_intonly_thumb2.a(small_wcsrtombs.o)
 .comment       0x000002d6       0x2a ../../../cpu/stm32w108/lib/e_stdio_intonly_thumb2.a(small_wcrtomb.o)
 .comment       0x00000000       0x2b contiki-mbxxx.a(nvm.o)

.debug
 *(.debug)

.line
 *(.line)

.debug_srcinfo
 *(.debug_srcinfo)

.debug_sfnames
 *(.debug_sfnames)

.debug_aranges  0x00000000     0x1cb8
 *(.debug_aranges)
 .debug_aranges
                0x00000000       0x78 stm-sensor.co
 .debug_aranges
                0x00000078       0x48 contiki-mbxxx.a(nullmac.o)
 .debug_aranges
                0x000000c0       0x50 contiki-mbxxx.a(sicslowmac.o)
 .debug_aranges
                0x00000110       0x80 contiki-mbxxx.a(process.o)
 .debug_aranges
                0x00000190       0x88 contiki-mbxxx.a(etimer.o)
 .debug_aranges
                0x00000218       0x28 contiki-mbxxx.a(random.o)
 .debug_aranges
                0x00000240       0xe0 contiki-mbxxx.a(packetbuf.o)
 .debug_aranges
                0x00000320       0x70 contiki-mbxxx.a(queuebuf.o)
 .debug_aranges
                0x00000390       0x78 contiki-mbxxx.a(sicslowpan.o)
 .debug_aranges
                0x00000408       0x98 contiki-mbxxx.a(tcpip.o)
 .debug_aranges
                0x000004a0       0x28 contiki-mbxxx.a(uip-debug.o)
 .debug_aranges
                0x000004c8       0xb0 contiki-mbxxx.a(uip-ds6-route.o)
 .debug_aranges
                0x00000578       0x80 contiki-mbxxx.a(uip-ds6-nbr.o)
 .debug_aranges
                0x000005f8       0xc8 contiki-mbxxx.a(uip-ds6.o)
 .debug_aranges
                0x000006c0       0x38 contiki-mbxxx.a(uip-nd6.o)
 .debug_aranges
                0x000006f8       0x28 contiki-mbxxx.a(uip-udp-packet.)
 .debug_aranges
                0x00000720       0xb0 contiki-mbxxx.a(uip6.o)
 .debug_aranges
                0x000007d0       0x38 contiki-mbxxx.a(button-sensor.o)
 .debug_aranges
                0x00000808       0x30 contiki-mbxxx.a(temperature-sen)
 .debug_aranges
                0x00000838       0x60 contiki-mbxxx.a(mems.o)
 .debug_aranges
                0x00000898       0x50 contiki-mbxxx.a(board.o)
 .debug_aranges
                0x000008e8       0x58 contiki-mbxxx.a(leds.o)
 .debug_aranges
                0x00000940       0x48 contiki-mbxxx.a(clock.o)
 .debug_aranges
                0x00000988       0x40 contiki-mbxxx.a(watchdog.o)
 .debug_aranges
                0x000009c8       0x38 contiki-mbxxx.a(uart1-putchar.o)
 .debug_aranges
                0x00000a00       0xe0 contiki-mbxxx.a(stm32w-radio.o)
 .debug_aranges
                0x00000ae0       0x48 contiki-mbxxx.a(stm32w-systick.)
 .debug_aranges
                0x00000b28       0x20 contiki-mbxxx.a(uip-arch.o)
 .debug_aranges
                0x00000b48       0x48 contiki-mbxxx.a(rtimer-arch.o)
 .debug_aranges
                0x00000b90       0x80 contiki-mbxxx.a(adc.o)
 .debug_aranges
                0x00000c10       0x70 contiki-mbxxx.a(micro.o)
 .debug_aranges
                0x00000c80       0x30 contiki-mbxxx.a(sleep.o)
 .debug_aranges
                0x00000cb0       0x50 contiki-mbxxx.a(micro-common.o)
 .debug_aranges
                0x00000d00       0x60 contiki-mbxxx.a(micro-common-in)
 .debug_aranges
                0x00000d60       0x48 contiki-mbxxx.a(clocks.o)
 .debug_aranges
                0x00000da8       0x28 contiki-mbxxx.a(mfg-token.o)
 .debug_aranges
                0x00000dd0       0x40 contiki-mbxxx.a(flash.o)
 .debug_aranges
                0x00000e10       0x28 contiki-mbxxx.a(rand.o)
 .debug_aranges
                0x00000e38       0x80 contiki-mbxxx.a(crt-stm32w108.o)
 .debug_aranges
                0x00000eb8       0x20 contiki-mbxxx.a(spmr.o)
 .debug_aranges
                0x00000ed8       0x20 contiki-mbxxx.a(context-switch.)
 .debug_aranges
                0x00000ef8       0x30 contiki-mbxxx.a(rimeaddr.o)
 .debug_aranges
                0x00000f28       0x40 contiki-mbxxx.a(frame802154.o)
 .debug_aranges
                0x00000f68       0x28 contiki-mbxxx.a(framer-802154.o)
 .debug_aranges
                0x00000f90       0x50 contiki-mbxxx.a(rpl.o)
 .debug_aranges
                0x00000fe0      0x150 contiki-mbxxx.a(rpl-dag.o)
 .debug_aranges
                0x00001130       0x68 contiki-mbxxx.a(rpl-icmp6.o)
 .debug_aranges
                0x00001198       0x50 contiki-mbxxx.a(rpl-timers.o)
 .debug_aranges
                0x000011e8       0x50 contiki-mbxxx.a(rpl-mrhof.o)
 .debug_aranges
                0x00001238       0x48 contiki-mbxxx.a(rpl-ext-header.)
 .debug_aranges
                0x00001280       0x38 contiki-mbxxx.a(memb.o)
 .debug_aranges
                0x000012b8       0x40 contiki-mbxxx.a(timer.o)
 .debug_aranges
                0x000012f8       0x78 contiki-mbxxx.a(list.o)
 .debug_aranges
                0x00001370       0x50 contiki-mbxxx.a(ctimer.o)
 .debug_aranges
                0x000013c0       0x30 contiki-mbxxx.a(rtimer.o)
 .debug_aranges
                0x000013f0       0x48 contiki-mbxxx.a(stimer.o)
 .debug_aranges
                0x00001438       0xa0 contiki-mbxxx.a(nbr-table.o)
 .debug_aranges
                0x000014d8       0x30 contiki-mbxxx.a(uip-icmp6.o)
 .debug_aranges
                0x00001508       0x48 contiki-mbxxx.a(sensors.o)
 .debug_aranges
                0x00001550       0x20 contiki-mbxxx.a(contiki-main.o)
 .debug_aranges
                0x00001570       0x30 contiki-mbxxx.a(leds-arch.o)
 .debug_aranges
                0x000015a0       0x40 contiki-mbxxx.a(uart1.o)
 .debug_aranges
                0x000015e0       0x20 contiki-mbxxx.a(procinit.o)
 .debug_aranges
                0x00001600       0x28 contiki-mbxxx.a(autostart.o)
 .debug_aranges
                0x00001628       0x30 contiki-mbxxx.a(serial-line.o)
 .debug_aranges
                0x00001658       0x38 contiki-mbxxx.a(energest.o)
 .debug_aranges
                0x00001690       0x40 contiki-mbxxx.a(ringbuf.o)
 .debug_aranges
                0x000016d0       0x20 contiki-mbxxx.a(netstack.o)
 .debug_aranges
                0x000016f0       0x38 contiki-mbxxx.a(contact-sensor.)
 .debug_aranges
                0x00001728      0x1c8 ../../../cpu/stm32w108/simplemac/library/simplemac-library-gnu.a(phy-library-min.o)
 .debug_aranges
                0x000018f0       0x40 ../../../cpu/stm32w108/simplemac/library/simplemac-library-gnu.a(aes-min.o)
 .debug_aranges
                0x00001930       0x20 ../../../cpu/stm32w108/simplemac/library/simplemac-library-gnu.a(eui64-min.o)
 .debug_aranges
                0x00001950       0x28 ../../../cpu/stm32w108/simplemac/library/simplemac-library-gnu.a(misc-min.o)
 .debug_aranges
                0x00001978       0x60 ../../../cpu/stm32w108/simplemac/library/simplemac-library-gnu.a(phy-min.o)
 .debug_aranges
                0x000019d8       0x78 ../../../cpu/stm32w108/simplemac/library/simplemac-library-gnu.a(analogue-min.o)
 .debug_aranges
                0x00001a50       0x20 ../../../cpu/stm32w108/simplemac/library/simplemac-library-gnu.a(analogue-cell-bias-min.o)
 .debug_aranges
                0x00001a70       0x20 ../../../cpu/stm32w108/simplemac/library/simplemac-library-gnu.a(analogue-filter-min.o)
 .debug_aranges
                0x00001a90       0x28 ../../../cpu/stm32w108/simplemac/library/simplemac-library-gnu.a(analogue-lna-min.o)
 .debug_aranges
                0x00001ab8       0x30 ../../../cpu/stm32w108/simplemac/library/simplemac-library-gnu.a(analogue-mod-dac-min.o)
 .debug_aranges
                0x00001ae8       0x28 ../../../cpu/stm32w108/simplemac/library/simplemac-library-gnu.a(analogue-vco-min.o)
 .debug_aranges
                0x00001b10      0x168 ../../../cpu/stm32w108/simplemac/library/simplemac-library-gnu.a(phy-common-min.o)
 .debug_aranges
                0x00001c78       0x40 contiki-mbxxx.a(nvm.o)

.debug_pubnames
                0x00000000     0x437d
 *(.debug_pubnames)
 .debug_pubnames
                0x00000000       0xe9 stm-sensor.co
 .debug_pubnames
                0x000000e9       0x30 obj_mbxxx/symbols.o
 .debug_pubnames
                0x00000119       0x25 contiki-mbxxx.a(nullmac.o)
 .debug_pubnames
                0x0000013e       0x36 contiki-mbxxx.a(sicslowmac.o)
 .debug_pubnames
                0x00000174       0xf7 contiki-mbxxx.a(process.o)
 .debug_pubnames
                0x0000026b      0x109 contiki-mbxxx.a(etimer.o)
 .debug_pubnames
                0x00000374       0x32 contiki-mbxxx.a(random.o)
 .debug_pubnames
                0x000003a6      0x280 contiki-mbxxx.a(packetbuf.o)
 .debug_pubnames
                0x00000626       0xff contiki-mbxxx.a(queuebuf.o)
 .debug_pubnames
                0x00000725       0xb4 contiki-mbxxx.a(sicslowpan.o)
 .debug_pubnames
                0x000007d9      0x12c contiki-mbxxx.a(tcpip.o)
 .debug_pubnames
                0x00000905       0x48 contiki-mbxxx.a(uip-debug.o)
 .debug_pubnames
                0x0000094d      0x1a3 contiki-mbxxx.a(uip-ds6-route.o)
 .debug_pubnames
                0x00000af0      0x18c contiki-mbxxx.a(uip-ds6-nbr.o)
 .debug_pubnames
                0x00000c7c      0x2a3 contiki-mbxxx.a(uip-ds6.o)
 .debug_pubnames
                0x00000f1f       0x52 contiki-mbxxx.a(uip-nd6.o)
 .debug_pubnames
                0x00000f71       0x44 contiki-mbxxx.a(uip-udp-packet.)
 .debug_pubnames
                0x00000fb5      0x219 contiki-mbxxx.a(uip6.o)
 .debug_pubnames
                0x000011ce       0x41 contiki-mbxxx.a(button-sensor.o)
 .debug_pubnames
                0x0000120f       0x37 contiki-mbxxx.a(temperature-sen)
 .debug_pubnames
                0x00001246       0x88 contiki-mbxxx.a(mems.o)
 .debug_pubnames
                0x000012ce      0x268 contiki-mbxxx.a(board.o)
 .debug_pubnames
                0x00001536       0x75 contiki-mbxxx.a(leds.o)
 .debug_pubnames
                0x000015ab       0x75 contiki-mbxxx.a(clock.o)
 .debug_pubnames
                0x00001620       0x73 contiki-mbxxx.a(watchdog.o)
 .debug_pubnames
                0x00001693       0x44 contiki-mbxxx.a(uart1-putchar.o)
 .debug_pubnames
                0x000016d7      0x206 contiki-mbxxx.a(stm32w-radio.o)
 .debug_pubnames
                0x000018dd       0xa1 contiki-mbxxx.a(stm32w-systick.)
 .debug_pubnames
                0x0000197e       0x20 contiki-mbxxx.a(uip-arch.o)
 .debug_pubnames
                0x0000199e       0x9c contiki-mbxxx.a(rtimer-arch.o)
 .debug_pubnames
                0x00001a3a      0x12e contiki-mbxxx.a(adc.o)
 .debug_pubnames
                0x00001b68       0xe1 contiki-mbxxx.a(micro.o)
 .debug_pubnames
                0x00001c49       0x52 contiki-mbxxx.a(sleep.o)
 .debug_pubnames
                0x00001c9b       0xda contiki-mbxxx.a(micro-common.o)
 .debug_pubnames
                0x00001d75       0xf1 contiki-mbxxx.a(micro-common-in)
 .debug_pubnames
                0x00001e66       0xb9 contiki-mbxxx.a(clocks.o)
 .debug_pubnames
                0x00001f1f      0x330 contiki-mbxxx.a(mfg-token.o)
 .debug_pubnames
                0x0000224f       0x99 contiki-mbxxx.a(flash.o)
 .debug_pubnames
                0x000022e8       0x25 contiki-mbxxx.a(rand.o)
 .debug_pubnames
                0x0000230d       0xd1 contiki-mbxxx.a(crt-stm32w108.o)
 .debug_pubnames
                0x000023de       0x79 contiki-mbxxx.a(rimeaddr.o)
 .debug_pubnames
                0x00002457       0x56 contiki-mbxxx.a(frame802154.o)
 .debug_pubnames
                0x000024ad       0x24 contiki-mbxxx.a(framer-802154.o)
 .debug_pubnames
                0x000024d1       0xbb contiki-mbxxx.a(rpl.o)
 .debug_pubnames
                0x0000258c      0x2c7 contiki-mbxxx.a(rpl-dag.o)
 .debug_pubnames
                0x00002853       0x7a contiki-mbxxx.a(rpl-icmp6.o)
 .debug_pubnames
                0x000028cd       0x5c contiki-mbxxx.a(rpl-timers.o)
 .debug_pubnames
                0x00002929       0x20 contiki-mbxxx.a(rpl-mrhof.o)
 .debug_pubnames
                0x00002949       0xa2 contiki-mbxxx.a(rpl-ext-header.)
 .debug_pubnames
                0x000029eb       0x4d contiki-mbxxx.a(memb.o)
 .debug_pubnames
                0x00002a38       0x68 contiki-mbxxx.a(timer.o)
 .debug_pubnames
                0x00002aa0       0xc3 contiki-mbxxx.a(list.o)
 .debug_pubnames
                0x00002b63       0x8b contiki-mbxxx.a(ctimer.o)
 .debug_pubnames
                0x00002bee       0x45 contiki-mbxxx.a(rtimer.o)
 .debug_pubnames
                0x00002c33       0x80 contiki-mbxxx.a(stimer.o)
 .debug_pubnames
                0x00002cb3       0xdc contiki-mbxxx.a(nbr-table.o)
 .debug_pubnames
                0x00002d8f       0x61 contiki-mbxxx.a(uip-icmp6.o)
 .debug_pubnames
                0x00002df0       0x80 contiki-mbxxx.a(sensors.o)
 .debug_pubnames
                0x00002e70       0x54 contiki-mbxxx.a(contiki-main.o)
 .debug_pubnames
                0x00002ec4       0x57 contiki-mbxxx.a(leds-arch.o)
 .debug_pubnames
                0x00002f1b       0x6b contiki-mbxxx.a(uart1.o)
 .debug_pubnames
                0x00002f86       0x24 contiki-mbxxx.a(procinit.o)
 .debug_pubnames
                0x00002faa       0x39 contiki-mbxxx.a(autostart.o)
 .debug_pubnames
                0x00002fe3       0x78 contiki-mbxxx.a(serial-line.o)
 .debug_pubnames
                0x0000305b       0x64 contiki-mbxxx.a(energest.o)
 .debug_pubnames
                0x000030bf       0x69 contiki-mbxxx.a(ringbuf.o)
 .debug_pubnames
                0x00003128       0x24 contiki-mbxxx.a(netstack.o)
 .debug_pubnames
                0x0000314c       0x42 contiki-mbxxx.a(contact-sensor.)
 .debug_pubnames
                0x0000318e      0x5f0 ../../../cpu/stm32w108/simplemac/library/simplemac-library-gnu.a(phy-library-min.o)
 .debug_pubnames
                0x0000377e       0x8b ../../../cpu/stm32w108/simplemac/library/simplemac-library-gnu.a(aes-min.o)
 .debug_pubnames
                0x00003809       0x35 ../../../cpu/stm32w108/simplemac/library/simplemac-library-gnu.a(eui64-min.o)
 .debug_pubnames
                0x0000383e       0x38 ../../../cpu/stm32w108/simplemac/library/simplemac-library-gnu.a(misc-min.o)
 .debug_pubnames
                0x00003876      0x165 ../../../cpu/stm32w108/simplemac/library/simplemac-library-gnu.a(phy-min.o)
 .debug_pubnames
                0x000039db      0x1ea ../../../cpu/stm32w108/simplemac/library/simplemac-library-gnu.a(analogue-min.o)
 .debug_pubnames
                0x00003bc5       0x93 ../../../cpu/stm32w108/simplemac/library/simplemac-library-gnu.a(analogue-cell-bias-min.o)
 .debug_pubnames
                0x00003c58       0x4a ../../../cpu/stm32w108/simplemac/library/simplemac-library-gnu.a(analogue-filter-min.o)
 .debug_pubnames
                0x00003ca2       0x3d ../../../cpu/stm32w108/simplemac/library/simplemac-library-gnu.a(analogue-lna-min.o)
 .debug_pubnames
                0x00003cdf       0x62 ../../../cpu/stm32w108/simplemac/library/simplemac-library-gnu.a(analogue-mod-dac-min.o)
 .debug_pubnames
                0x00003d41       0x49 ../../../cpu/stm32w108/simplemac/library/simplemac-library-gnu.a(analogue-vco-min.o)
 .debug_pubnames
                0x00003d8a      0x56a ../../../cpu/stm32w108/simplemac/library/simplemac-library-gnu.a(phy-common-min.o)
 .debug_pubnames
                0x000042f4       0x89 contiki-mbxxx.a(nvm.o)

.debug_info     0x00000000    0x1ff6a
 *(.debug_info .gnu.linkonce.wi.*)
 .debug_info    0x00000000      0xe03 stm-sensor.co
 .debug_info    0x00000e03       0xaf obj_mbxxx/symbols.o
 .debug_info    0x00000eb2      0x386 contiki-mbxxx.a(nullmac.o)
 .debug_info    0x00001238      0x8bf contiki-mbxxx.a(sicslowmac.o)
 .debug_info    0x00001af7      0x552 contiki-mbxxx.a(process.o)
 .debug_info    0x00002049      0x4e0 contiki-mbxxx.a(etimer.o)
 .debug_info    0x00002529       0xb6 contiki-mbxxx.a(random.o)
 .debug_info    0x000025df      0x6d1 contiki-mbxxx.a(packetbuf.o)
 .debug_info    0x00002cb0      0x680 contiki-mbxxx.a(queuebuf.o)
 .debug_info    0x00003330      0xe87 contiki-mbxxx.a(sicslowpan.o)
 .debug_info    0x000041b7     0x16cb contiki-mbxxx.a(tcpip.o)
 .debug_info    0x00005882      0x1be contiki-mbxxx.a(uip-debug.o)
 .debug_info    0x00005a40      0xa8a contiki-mbxxx.a(uip-ds6-route.o)
 .debug_info    0x000064ca      0x8e3 contiki-mbxxx.a(uip-ds6-nbr.o)
 .debug_info    0x00006dad      0xb62 contiki-mbxxx.a(uip-ds6.o)
 .debug_info    0x0000790f      0x7ee contiki-mbxxx.a(uip-nd6.o)
 .debug_info    0x000080fd      0x3d0 contiki-mbxxx.a(uip-udp-packet.)
 .debug_info    0x000084cd     0x104a contiki-mbxxx.a(uip6.o)
 .debug_info    0x00009517      0x509 contiki-mbxxx.a(button-sensor.o)
 .debug_info    0x00009a20      0x516 contiki-mbxxx.a(temperature-sen)
 .debug_info    0x00009f36      0x525 contiki-mbxxx.a(mems.o)
 .debug_info    0x0000a45b      0xa06 contiki-mbxxx.a(board.o)
 .debug_info    0x0000ae61      0x1d2 contiki-mbxxx.a(leds.o)
 .debug_info    0x0000b033      0x1cd contiki-mbxxx.a(clock.o)
 .debug_info    0x0000b200       0xdb contiki-mbxxx.a(watchdog.o)
 .debug_info    0x0000b2db      0x9c5 contiki-mbxxx.a(uart1-putchar.o)
 .debug_info    0x0000bca0      0xf82 contiki-mbxxx.a(stm32w-radio.o)
 .debug_info    0x0000cc22      0x228 contiki-mbxxx.a(stm32w-systick.)
 .debug_info    0x0000ce4a      0x119 contiki-mbxxx.a(uip-arch.o)
 .debug_info    0x0000cf63      0x1ee contiki-mbxxx.a(rtimer-arch.o)
 .debug_info    0x0000d151      0x8fb contiki-mbxxx.a(adc.o)
 .debug_info    0x0000da4c      0x853 contiki-mbxxx.a(micro.o)
 .debug_info    0x0000e29f      0x39c contiki-mbxxx.a(sleep.o)
 .debug_info    0x0000e63b      0x1ee contiki-mbxxx.a(micro-common.o)
 .debug_info    0x0000e829      0x7ad contiki-mbxxx.a(micro-common-in)
 .debug_info    0x0000efd6      0x30b contiki-mbxxx.a(clocks.o)
 .debug_info    0x0000f2e1      0xa56 contiki-mbxxx.a(mfg-token.o)
 .debug_info    0x0000fd37      0x70f contiki-mbxxx.a(flash.o)
 .debug_info    0x00010446       0xd0 contiki-mbxxx.a(rand.o)
 .debug_info    0x00010516     0x1004 contiki-mbxxx.a(crt-stm32w108.o)
 .debug_info    0x0001151a       0xa1 contiki-mbxxx.a(spmr.o)
 .debug_info    0x000115bb       0xab contiki-mbxxx.a(context-switch.)
 .debug_info    0x00011666      0x17c contiki-mbxxx.a(rimeaddr.o)
 .debug_info    0x000117e2      0x48e contiki-mbxxx.a(frame802154.o)
 .debug_info    0x00011c70      0x4d8 contiki-mbxxx.a(framer-802154.o)
 .debug_info    0x00012148      0xc4c contiki-mbxxx.a(rpl.o)
 .debug_info    0x00012d94     0x18b6 contiki-mbxxx.a(rpl-dag.o)
 .debug_info    0x0001464a     0x154f contiki-mbxxx.a(rpl-icmp6.o)
 .debug_info    0x00015b99      0x9a2 contiki-mbxxx.a(rpl-timers.o)
 .debug_info    0x0001653b      0xa43 contiki-mbxxx.a(rpl-mrhof.o)
 .debug_info    0x00016f7e      0xd26 contiki-mbxxx.a(rpl-ext-header.)
 .debug_info    0x00017ca4      0x1b2 contiki-mbxxx.a(memb.o)
 .debug_info    0x00017e56      0x193 contiki-mbxxx.a(timer.o)
 .debug_info    0x00017fe9      0x32a contiki-mbxxx.a(list.o)
 .debug_info    0x00018313      0x48d contiki-mbxxx.a(ctimer.o)
 .debug_info    0x000187a0      0x1c7 contiki-mbxxx.a(rtimer.o)
 .debug_info    0x00018967      0x1a4 contiki-mbxxx.a(stimer.o)
 .debug_info    0x00018b0b      0x901 contiki-mbxxx.a(nbr-table.o)
 .debug_info    0x0001940c      0x564 contiki-mbxxx.a(uip-icmp6.o)
 .debug_info    0x00019970      0x3d7 contiki-mbxxx.a(sensors.o)
 .debug_info    0x00019d47      0xa97 contiki-mbxxx.a(contiki-main.o)
 .debug_info    0x0001a7de      0x376 contiki-mbxxx.a(leds-arch.o)
 .debug_info    0x0001ab54      0x1a5 contiki-mbxxx.a(uart1.o)
 .debug_info    0x0001acf9      0x1a8 contiki-mbxxx.a(procinit.o)
 .debug_info    0x0001aea1      0x1c4 contiki-mbxxx.a(autostart.o)
 .debug_info    0x0001b065      0x327 contiki-mbxxx.a(serial-line.o)
 .debug_info    0x0001b38c       0xfe contiki-mbxxx.a(energest.o)
 .debug_info    0x0001b48a      0x1d0 contiki-mbxxx.a(ringbuf.o)
 .debug_info    0x0001b65a      0x3f5 contiki-mbxxx.a(netstack.o)
 .debug_info    0x0001ba4f      0x1f5 contiki-mbxxx.a(contact-sensor.)
 .debug_info    0x0001bc44      0xb4d ../../../cpu/stm32w108/simplemac/library/simplemac-library-gnu.a(phy-library-min.o)
 .debug_info    0x0001c791      0x173 ../../../cpu/stm32w108/simplemac/library/simplemac-library-gnu.a(aes-min.o)
 .debug_info    0x0001c904      0x172 ../../../cpu/stm32w108/simplemac/library/simplemac-library-gnu.a(eui64-min.o)
 .debug_info    0x0001ca76      0x14e ../../../cpu/stm32w108/simplemac/library/simplemac-library-gnu.a(misc-min.o)
 .debug_info    0x0001cbc4      0x7b2 ../../../cpu/stm32w108/simplemac/library/simplemac-library-gnu.a(phy-min.o)
 .debug_info    0x0001d376      0xb1e ../../../cpu/stm32w108/simplemac/library/simplemac-library-gnu.a(analogue-min.o)
 .debug_info    0x0001de94      0x445 ../../../cpu/stm32w108/simplemac/library/simplemac-library-gnu.a(analogue-cell-bias-min.o)
 .debug_info    0x0001e2d9      0x1ea ../../../cpu/stm32w108/simplemac/library/simplemac-library-gnu.a(analogue-filter-min.o)
 .debug_info    0x0001e4c3      0x2c3 ../../../cpu/stm32w108/simplemac/library/simplemac-library-gnu.a(analogue-lna-min.o)
 .debug_info    0x0001e786      0x262 ../../../cpu/stm32w108/simplemac/library/simplemac-library-gnu.a(analogue-mod-dac-min.o)
 .debug_info    0x0001e9e8      0x166 ../../../cpu/stm32w108/simplemac/library/simplemac-library-gnu.a(analogue-vco-min.o)
 .debug_info    0x0001eb4e      0xcb8 ../../../cpu/stm32w108/simplemac/library/simplemac-library-gnu.a(phy-common-min.o)
 .debug_info    0x0001f806      0x764 contiki-mbxxx.a(nvm.o)

.debug_abbrev   0x00000000     0x8582
 *(.debug_abbrev)
 .debug_abbrev  0x00000000      0x365 stm-sensor.co
 .debug_abbrev  0x00000365       0x82 obj_mbxxx/symbols.o
 .debug_abbrev  0x000003e7      0x16d contiki-mbxxx.a(nullmac.o)
 .debug_abbrev  0x00000554      0x256 contiki-mbxxx.a(sicslowmac.o)
 .debug_abbrev  0x000007aa      0x2dd contiki-mbxxx.a(process.o)
 .debug_abbrev  0x00000a87      0x238 contiki-mbxxx.a(etimer.o)
 .debug_abbrev  0x00000cbf       0x69 contiki-mbxxx.a(random.o)
 .debug_abbrev  0x00000d28      0x275 contiki-mbxxx.a(packetbuf.o)
 .debug_abbrev  0x00000f9d      0x1c5 contiki-mbxxx.a(queuebuf.o)
 .debug_abbrev  0x00001162      0x33b contiki-mbxxx.a(sicslowpan.o)
 .debug_abbrev  0x0000149d      0x3db contiki-mbxxx.a(tcpip.o)
 .debug_abbrev  0x00001878       0xd9 contiki-mbxxx.a(uip-debug.o)
 .debug_abbrev  0x00001951      0x27a contiki-mbxxx.a(uip-ds6-route.o)
 .debug_abbrev  0x00001bcb      0x20b contiki-mbxxx.a(uip-ds6-nbr.o)
 .debug_abbrev  0x00001dd6      0x23f contiki-mbxxx.a(uip-ds6.o)
 .debug_abbrev  0x00002015      0x1cd contiki-mbxxx.a(uip-nd6.o)
 .debug_abbrev  0x000021e2      0x1a9 contiki-mbxxx.a(uip-udp-packet.)
 .debug_abbrev  0x0000238b      0x2e3 contiki-mbxxx.a(uip6.o)
 .debug_abbrev  0x0000266e      0x197 contiki-mbxxx.a(button-sensor.o)
 .debug_abbrev  0x00002805      0x185 contiki-mbxxx.a(temperature-sen)
 .debug_abbrev  0x0000298a      0x221 contiki-mbxxx.a(mems.o)
 .debug_abbrev  0x00002bab      0x1b2 contiki-mbxxx.a(board.o)
 .debug_abbrev  0x00002d5d       0xfc contiki-mbxxx.a(leds.o)
 .debug_abbrev  0x00002e59      0x107 contiki-mbxxx.a(clock.o)
 .debug_abbrev  0x00002f60       0x41 contiki-mbxxx.a(watchdog.o)
 .debug_abbrev  0x00002fa1      0x1c6 contiki-mbxxx.a(uart1-putchar.o)
 .debug_abbrev  0x00003167      0x38e contiki-mbxxx.a(stm32w-radio.o)
 .debug_abbrev  0x000034f5      0x11d contiki-mbxxx.a(stm32w-systick.)
 .debug_abbrev  0x00003612       0xb6 contiki-mbxxx.a(uip-arch.o)
 .debug_abbrev  0x000036c8       0xe6 contiki-mbxxx.a(rtimer-arch.o)
 .debug_abbrev  0x000037ae      0x1e6 contiki-mbxxx.a(adc.o)
 .debug_abbrev  0x00003994      0x20f contiki-mbxxx.a(micro.o)
 .debug_abbrev  0x00003ba3      0x128 contiki-mbxxx.a(sleep.o)
 .debug_abbrev  0x00003ccb      0x12f contiki-mbxxx.a(micro-common.o)
 .debug_abbrev  0x00003dfa      0x1a4 contiki-mbxxx.a(micro-common-in)
 .debug_abbrev  0x00003f9e      0x14c contiki-mbxxx.a(clocks.o)
 .debug_abbrev  0x000040ea      0x132 contiki-mbxxx.a(mfg-token.o)
 .debug_abbrev  0x0000421c      0x1bc contiki-mbxxx.a(flash.o)
 .debug_abbrev  0x000043d8       0x85 contiki-mbxxx.a(rand.o)
 .debug_abbrev  0x0000445d      0x2a4 contiki-mbxxx.a(crt-stm32w108.o)
 .debug_abbrev  0x00004701       0x14 contiki-mbxxx.a(spmr.o)
 .debug_abbrev  0x00004715       0x14 contiki-mbxxx.a(context-switch.)
 .debug_abbrev  0x00004729      0x103 contiki-mbxxx.a(rimeaddr.o)
 .debug_abbrev  0x0000482c      0x15d contiki-mbxxx.a(frame802154.o)
 .debug_abbrev  0x00004989      0x18b contiki-mbxxx.a(framer-802154.o)
 .debug_abbrev  0x00004b14      0x1d6 contiki-mbxxx.a(rpl.o)
 .debug_abbrev  0x00004cea      0x433 contiki-mbxxx.a(rpl-dag.o)
 .debug_abbrev  0x0000511d      0x33a contiki-mbxxx.a(rpl-icmp6.o)
 .debug_abbrev  0x00005457      0x1a3 contiki-mbxxx.a(rpl-timers.o)
 .debug_abbrev  0x000055fa      0x1ef contiki-mbxxx.a(rpl-mrhof.o)
 .debug_abbrev  0x000057e9      0x27c contiki-mbxxx.a(rpl-ext-header.)
 .debug_abbrev  0x00005a65       0xec contiki-mbxxx.a(memb.o)
 .debug_abbrev  0x00005b51       0xfa contiki-mbxxx.a(timer.o)
 .debug_abbrev  0x00005c4b      0x153 contiki-mbxxx.a(list.o)
 .debug_abbrev  0x00005d9e      0x1be contiki-mbxxx.a(ctimer.o)
 .debug_abbrev  0x00005f5c      0x12c contiki-mbxxx.a(rtimer.o)
 .debug_abbrev  0x00006088       0xde contiki-mbxxx.a(stimer.o)
 .debug_abbrev  0x00006166      0x28b contiki-mbxxx.a(nbr-table.o)
 .debug_abbrev  0x000063f1      0x148 contiki-mbxxx.a(uip-icmp6.o)
 .debug_abbrev  0x00006539      0x1ba contiki-mbxxx.a(sensors.o)
 .debug_abbrev  0x000066f3      0x239 contiki-mbxxx.a(contiki-main.o)
 .debug_abbrev  0x0000692c      0x136 contiki-mbxxx.a(leds-arch.o)
 .debug_abbrev  0x00006a62       0xe9 contiki-mbxxx.a(uart1.o)
 .debug_abbrev  0x00006b4b       0xf2 contiki-mbxxx.a(procinit.o)
 .debug_abbrev  0x00006c3d       0xf7 contiki-mbxxx.a(autostart.o)
 .debug_abbrev  0x00006d34      0x1b6 contiki-mbxxx.a(serial-line.o)
 .debug_abbrev  0x00006eea       0x9e contiki-mbxxx.a(energest.o)
 .debug_abbrev  0x00006f88      0x10b contiki-mbxxx.a(ringbuf.o)
 .debug_abbrev  0x00007093       0xdc contiki-mbxxx.a(netstack.o)
 .debug_abbrev  0x0000716f      0x10c contiki-mbxxx.a(contact-sensor.)
 .debug_abbrev  0x0000727b      0x240 ../../../cpu/stm32w108/simplemac/library/simplemac-library-gnu.a(phy-library-min.o)
 .debug_abbrev  0x000074bb       0xf0 ../../../cpu/stm32w108/simplemac/library/simplemac-library-gnu.a(aes-min.o)
 .debug_abbrev  0x000075ab       0xa8 ../../../cpu/stm32w108/simplemac/library/simplemac-library-gnu.a(eui64-min.o)
 .debug_abbrev  0x00007653       0xcb ../../../cpu/stm32w108/simplemac/library/simplemac-library-gnu.a(misc-min.o)
 .debug_abbrev  0x0000771e      0x1f9 ../../../cpu/stm32w108/simplemac/library/simplemac-library-gnu.a(phy-min.o)
 .debug_abbrev  0x00007917      0x27f ../../../cpu/stm32w108/simplemac/library/simplemac-library-gnu.a(analogue-min.o)
 .debug_abbrev  0x00007b96      0x15d ../../../cpu/stm32w108/simplemac/library/simplemac-library-gnu.a(analogue-cell-bias-min.o)
 .debug_abbrev  0x00007cf3       0xdb ../../../cpu/stm32w108/simplemac/library/simplemac-library-gnu.a(analogue-filter-min.o)
 .debug_abbrev  0x00007dce      0x120 ../../../cpu/stm32w108/simplemac/library/simplemac-library-gnu.a(analogue-lna-min.o)
 .debug_abbrev  0x00007eee      0x14a ../../../cpu/stm32w108/simplemac/library/simplemac-library-gnu.a(analogue-mod-dac-min.o)
 .debug_abbrev  0x00008038       0xfd ../../../cpu/stm32w108/simplemac/library/simplemac-library-gnu.a(analogue-vco-min.o)
 .debug_abbrev  0x00008135      0x2aa ../../../cpu/stm32w108/simplemac/library/simplemac-library-gnu.a(phy-common-min.o)
 .debug_abbrev  0x000083df      0x1a3 contiki-mbxxx.a(nvm.o)

.debug_line     0x00000000     0xb3c5
 *(.debug_line)
 .debug_line    0x00000000      0x4b4 stm-sensor.co
 .debug_line    0x000004b4       0x4e obj_mbxxx/symbols.o
 .debug_line    0x00000502       0xf3 contiki-mbxxx.a(nullmac.o)
 .debug_line    0x000005f5      0x247 contiki-mbxxx.a(sicslowmac.o)
 .debug_line    0x0000083c      0x21a contiki-mbxxx.a(process.o)
 .debug_line    0x00000a56      0x23e contiki-mbxxx.a(etimer.o)
 .debug_line    0x00000c94       0x5d contiki-mbxxx.a(random.o)
 .debug_line    0x00000cf1      0x345 contiki-mbxxx.a(packetbuf.o)
 .debug_line    0x00001036      0x214 contiki-mbxxx.a(queuebuf.o)
 .debug_line    0x0000124a      0x586 contiki-mbxxx.a(sicslowpan.o)
 .debug_line    0x000017d0      0x42c contiki-mbxxx.a(tcpip.o)
 .debug_line    0x00001bfc      0x11a contiki-mbxxx.a(uip-debug.o)
 .debug_line    0x00001d16      0x3ad contiki-mbxxx.a(uip-ds6-route.o)
 .debug_line    0x000020c3      0x2ff contiki-mbxxx.a(uip-ds6-nbr.o)
 .debug_line    0x000023c2      0x42b contiki-mbxxx.a(uip-ds6.o)
 .debug_line    0x000027ed      0x2f0 contiki-mbxxx.a(uip-nd6.o)
 .debug_line    0x00002add      0x147 contiki-mbxxx.a(uip-udp-packet.)
 .debug_line    0x00002c24      0x808 contiki-mbxxx.a(uip6.o)
 .debug_line    0x0000342c      0x20f contiki-mbxxx.a(button-sensor.o)
 .debug_line    0x0000363b      0x1b7 contiki-mbxxx.a(temperature-sen)
 .debug_line    0x000037f2      0x2df contiki-mbxxx.a(mems.o)
 .debug_line    0x00003ad1      0x2e2 contiki-mbxxx.a(board.o)
 .debug_line    0x00003db3       0xd3 contiki-mbxxx.a(leds.o)
 .debug_line    0x00003e86      0x1b9 contiki-mbxxx.a(clock.o)
 .debug_line    0x0000403f       0x9c contiki-mbxxx.a(watchdog.o)
 .debug_line    0x000040db      0x217 contiki-mbxxx.a(uart1-putchar.o)
 .debug_line    0x000042f2      0x5b3 contiki-mbxxx.a(stm32w-radio.o)
 .debug_line    0x000048a5      0x18c contiki-mbxxx.a(stm32w-systick.)
 .debug_line    0x00004a31       0xef contiki-mbxxx.a(uip-arch.o)
 .debug_line    0x00004b20      0x170 contiki-mbxxx.a(rtimer-arch.o)
 .debug_line    0x00004c90      0x2ea contiki-mbxxx.a(adc.o)
 .debug_line    0x00004f7a      0x271 contiki-mbxxx.a(micro.o)
 .debug_line    0x000051eb      0x356 contiki-mbxxx.a(sleep.o)
 .debug_line    0x00005541      0x1cb contiki-mbxxx.a(micro-common.o)
 .debug_line    0x0000570c      0x28b contiki-mbxxx.a(micro-common-in)
 .debug_line    0x00005997      0x261 contiki-mbxxx.a(clocks.o)
 .debug_line    0x00005bf8      0x18b contiki-mbxxx.a(mfg-token.o)
 .debug_line    0x00005d83      0x22d contiki-mbxxx.a(flash.o)
 .debug_line    0x00005fb0       0xd2 contiki-mbxxx.a(rand.o)
 .debug_line    0x00006082      0x3cd contiki-mbxxx.a(crt-stm32w108.o)
 .debug_line    0x0000644f       0x88 contiki-mbxxx.a(spmr.o)
 .debug_line    0x000064d7       0x87 contiki-mbxxx.a(context-switch.)
 .debug_line    0x0000655e       0xa2 contiki-mbxxx.a(rimeaddr.o)
 .debug_line    0x00006600      0x24c contiki-mbxxx.a(frame802154.o)
 .debug_line    0x0000684c      0x1c0 contiki-mbxxx.a(framer-802154.o)
 .debug_line    0x00006a0c      0x2d2 contiki-mbxxx.a(rpl.o)
 .debug_line    0x00006cde      0x7f2 contiki-mbxxx.a(rpl-dag.o)
 .debug_line    0x000074d0      0x476 contiki-mbxxx.a(rpl-icmp6.o)
 .debug_line    0x00007946      0x299 contiki-mbxxx.a(rpl-timers.o)
 .debug_line    0x00007bdf      0x28c contiki-mbxxx.a(rpl-mrhof.o)
 .debug_line    0x00007e6b      0x2f1 contiki-mbxxx.a(rpl-ext-header.)
 .debug_line    0x0000815c       0xd1 contiki-mbxxx.a(memb.o)
 .debug_line    0x0000822d       0xe5 contiki-mbxxx.a(timer.o)
 .debug_line    0x00008312      0x181 contiki-mbxxx.a(list.o)
 .debug_line    0x00008493      0x1d8 contiki-mbxxx.a(ctimer.o)
 .debug_line    0x0000866b       0xcb contiki-mbxxx.a(rtimer.o)
 .debug_line    0x00008736       0xd0 contiki-mbxxx.a(stimer.o)
 .debug_line    0x00008806      0x313 contiki-mbxxx.a(nbr-table.o)
 .debug_line    0x00008b19      0x1f1 contiki-mbxxx.a(uip-icmp6.o)
 .debug_line    0x00008d0a      0x151 contiki-mbxxx.a(sensors.o)
 .debug_line    0x00008e5b      0x36b contiki-mbxxx.a(contiki-main.o)
 .debug_line    0x000091c6      0x15e contiki-mbxxx.a(leds-arch.o)
 .debug_line    0x00009324      0x13e contiki-mbxxx.a(uart1.o)
 .debug_line    0x00009462       0x91 contiki-mbxxx.a(procinit.o)
 .debug_line    0x000094f3       0xae contiki-mbxxx.a(autostart.o)
 .debug_line    0x000095a1      0x198 contiki-mbxxx.a(serial-line.o)
 .debug_line    0x00009739       0x81 contiki-mbxxx.a(energest.o)
 .debug_line    0x000097ba      0x136 contiki-mbxxx.a(ringbuf.o)
 .debug_line    0x000098f0       0xbc contiki-mbxxx.a(netstack.o)
 .debug_line    0x000099ac      0x16b contiki-mbxxx.a(contact-sensor.)
 .debug_line    0x00009b17      0x4b2 ../../../cpu/stm32w108/simplemac/library/simplemac-library-gnu.a(phy-library-min.o)
 .debug_line    0x00009fc9       0xeb ../../../cpu/stm32w108/simplemac/library/simplemac-library-gnu.a(aes-min.o)
 .debug_line    0x0000a0b4       0xd0 ../../../cpu/stm32w108/simplemac/library/simplemac-library-gnu.a(eui64-min.o)
 .debug_line    0x0000a184       0x8f ../../../cpu/stm32w108/simplemac/library/simplemac-library-gnu.a(misc-min.o)
 .debug_line    0x0000a213      0x20c ../../../cpu/stm32w108/simplemac/library/simplemac-library-gnu.a(phy-min.o)
 .debug_line    0x0000a41f      0x30b ../../../cpu/stm32w108/simplemac/library/simplemac-library-gnu.a(analogue-min.o)
 .debug_line    0x0000a72a       0xe8 ../../../cpu/stm32w108/simplemac/library/simplemac-library-gnu.a(analogue-cell-bias-min.o)
 .debug_line    0x0000a812       0xc9 ../../../cpu/stm32w108/simplemac/library/simplemac-library-gnu.a(analogue-filter-min.o)
 .debug_line    0x0000a8db      0x158 ../../../cpu/stm32w108/simplemac/library/simplemac-library-gnu.a(analogue-lna-min.o)
 .debug_line    0x0000aa33      0x149 ../../../cpu/stm32w108/simplemac/library/simplemac-library-gnu.a(analogue-mod-dac-min.o)
 .debug_line    0x0000ab7c       0xec ../../../cpu/stm32w108/simplemac/library/simplemac-library-gnu.a(analogue-vco-min.o)
 .debug_line    0x0000ac68      0x4cb ../../../cpu/stm32w108/simplemac/library/simplemac-library-gnu.a(phy-common-min.o)
 .debug_line    0x0000b133      0x292 contiki-mbxxx.a(nvm.o)

.debug_frame    0x00000000     0x42b8
 *(.debug_frame)
 .debug_frame   0x00000000      0x174 stm-sensor.co
 .debug_frame   0x00000174       0x90 contiki-mbxxx.a(nullmac.o)
 .debug_frame   0x00000204       0xc0 contiki-mbxxx.a(sicslowmac.o)
 .debug_frame   0x000002c4      0x130 contiki-mbxxx.a(process.o)
 .debug_frame   0x000003f4      0x13c contiki-mbxxx.a(etimer.o)
 .debug_frame   0x00000530       0x38 contiki-mbxxx.a(random.o)
 .debug_frame   0x00000568      0x210 contiki-mbxxx.a(packetbuf.o)
 .debug_frame   0x00000778      0x110 contiki-mbxxx.a(queuebuf.o)
 .debug_frame   0x00000888      0x150 contiki-mbxxx.a(sicslowpan.o)
 .debug_frame   0x000009d8      0x190 contiki-mbxxx.a(tcpip.o)
 .debug_frame   0x00000b68       0x4c contiki-mbxxx.a(uip-debug.o)
 .debug_frame   0x00000bb4      0x1ec contiki-mbxxx.a(uip-ds6-route.o)
 .debug_frame   0x00000da0      0x148 contiki-mbxxx.a(uip-ds6-nbr.o)
 .debug_frame   0x00000ee8      0x268 contiki-mbxxx.a(uip-ds6.o)
 .debug_frame   0x00001150       0x94 contiki-mbxxx.a(uip-nd6.o)
 .debug_frame   0x000011e4       0x50 contiki-mbxxx.a(uip-udp-packet.)
 .debug_frame   0x00001234      0x1ec contiki-mbxxx.a(uip6.o)
 .debug_frame   0x00001420       0x6c contiki-mbxxx.a(button-sensor.o)
 .debug_frame   0x0000148c       0x54 contiki-mbxxx.a(temperature-sen)
 .debug_frame   0x000014e0       0xf8 contiki-mbxxx.a(mems.o)
 .debug_frame   0x000015d8       0xe8 contiki-mbxxx.a(board.o)
 .debug_frame   0x000016c0       0xa0 contiki-mbxxx.a(leds.o)
 .debug_frame   0x00001760       0x8c contiki-mbxxx.a(clock.o)
 .debug_frame   0x000017ec       0x60 contiki-mbxxx.a(watchdog.o)
 .debug_frame   0x0000184c       0x64 contiki-mbxxx.a(uart1-putchar.o)
 .debug_frame   0x000018b0      0x224 contiki-mbxxx.a(stm32w-radio.o)
 .debug_frame   0x00001ad4       0x70 contiki-mbxxx.a(stm32w-systick.)
 .debug_frame   0x00001b44       0x20 contiki-mbxxx.a(uip-arch.o)
 .debug_frame   0x00001b64       0x90 contiki-mbxxx.a(rtimer-arch.o)
 .debug_frame   0x00001bf4      0x134 contiki-mbxxx.a(adc.o)
 .debug_frame   0x00001d28       0xf4 contiki-mbxxx.a(micro.o)
 .debug_frame   0x00001e1c       0x68 contiki-mbxxx.a(sleep.o)
 .debug_frame   0x00001e84       0x90 contiki-mbxxx.a(micro-common.o)
 .debug_frame   0x00001f14       0xec contiki-mbxxx.a(micro-common-in)
 .debug_frame   0x00002000       0xa8 contiki-mbxxx.a(clocks.o)
 .debug_frame   0x000020a8       0x48 contiki-mbxxx.a(mfg-token.o)
 .debug_frame   0x000020f0       0x94 contiki-mbxxx.a(flash.o)
 .debug_frame   0x00002184       0x3c contiki-mbxxx.a(rand.o)
 .debug_frame   0x000021c0       0xfc contiki-mbxxx.a(crt-stm32w108.o)
 .debug_frame   0x000022bc       0x48 contiki-mbxxx.a(rimeaddr.o)
 .debug_frame   0x00002304       0xa0 contiki-mbxxx.a(frame802154.o)
 .debug_frame   0x000023a4       0x4c contiki-mbxxx.a(framer-802154.o)
 .debug_frame   0x000023f0       0xdc contiki-mbxxx.a(rpl.o)
 .debug_frame   0x000024cc      0x400 contiki-mbxxx.a(rpl-dag.o)
 .debug_frame   0x000028cc      0x128 contiki-mbxxx.a(rpl-icmp6.o)
 .debug_frame   0x000029f4       0xbc contiki-mbxxx.a(rpl-timers.o)
 .debug_frame   0x00002ab0       0x90 contiki-mbxxx.a(rpl-mrhof.o)
 .debug_frame   0x00002b40       0xbc contiki-mbxxx.a(rpl-ext-header.)
 .debug_frame   0x00002bfc       0x6c contiki-mbxxx.a(memb.o)
 .debug_frame   0x00002c68       0x80 contiki-mbxxx.a(timer.o)
 .debug_frame   0x00002ce8       0xe8 contiki-mbxxx.a(list.o)
 .debug_frame   0x00002dd0       0xcc contiki-mbxxx.a(ctimer.o)
 .debug_frame   0x00002e9c       0x50 contiki-mbxxx.a(rtimer.o)
 .debug_frame   0x00002eec       0x98 contiki-mbxxx.a(stimer.o)
 .debug_frame   0x00002f84      0x1a8 contiki-mbxxx.a(nbr-table.o)
 .debug_frame   0x0000312c       0x7c contiki-mbxxx.a(uip-icmp6.o)
 .debug_frame   0x000031a8       0xa4 contiki-mbxxx.a(sensors.o)
 .debug_frame   0x0000324c       0x30 contiki-mbxxx.a(contiki-main.o)
 .debug_frame   0x0000327c       0x64 contiki-mbxxx.a(leds-arch.o)
 .debug_frame   0x000032e0       0x84 contiki-mbxxx.a(uart1.o)
 .debug_frame   0x00003364       0x28 contiki-mbxxx.a(procinit.o)
 .debug_frame   0x0000338c       0x40 contiki-mbxxx.a(autostart.o)
 .debug_frame   0x000033cc       0x5c contiki-mbxxx.a(serial-line.o)
 .debug_frame   0x00003428       0x50 contiki-mbxxx.a(energest.o)
 .debug_frame   0x00003478       0x68 contiki-mbxxx.a(ringbuf.o)
 .debug_frame   0x000034e0       0x28 contiki-mbxxx.a(netstack.o)
 .debug_frame   0x00003508       0x60 contiki-mbxxx.a(contact-sensor.)
 .debug_frame   0x00003568      0x39c ../../../cpu/stm32w108/simplemac/library/simplemac-library-gnu.a(phy-library-min.o)
 .debug_frame   0x00003904       0x90 ../../../cpu/stm32w108/simplemac/library/simplemac-library-gnu.a(aes-min.o)
 .debug_frame   0x00003994       0x20 ../../../cpu/stm32w108/simplemac/library/simplemac-library-gnu.a(eui64-min.o)
 .debug_frame   0x000039b4       0x38 ../../../cpu/stm32w108/simplemac/library/simplemac-library-gnu.a(misc-min.o)
 .debug_frame   0x000039ec      0x100 ../../../cpu/stm32w108/simplemac/library/simplemac-library-gnu.a(phy-min.o)
 .debug_frame   0x00003aec      0x138 ../../../cpu/stm32w108/simplemac/library/simplemac-library-gnu.a(analogue-min.o)
 .debug_frame   0x00003c24       0x30 ../../../cpu/stm32w108/simplemac/library/simplemac-library-gnu.a(analogue-cell-bias-min.o)
 .debug_frame   0x00003c54       0x30 ../../../cpu/stm32w108/simplemac/library/simplemac-library-gnu.a(analogue-filter-min.o)
 .debug_frame   0x00003c84       0x4c ../../../cpu/stm32w108/simplemac/library/simplemac-library-gnu.a(analogue-lna-min.o)
 .debug_frame   0x00003cd0       0x74 ../../../cpu/stm32w108/simplemac/library/simplemac-library-gnu.a(analogue-mod-dac-min.o)
 .debug_frame   0x00003d44       0x3c ../../../cpu/stm32w108/simplemac/library/simplemac-library-gnu.a(analogue-vco-min.o)
 .debug_frame   0x00003d80      0x330 ../../../cpu/stm32w108/simplemac/library/simplemac-library-gnu.a(phy-common-min.o)
 .debug_frame   0x000040b0       0xac contiki-mbxxx.a(nvm.o)
 .debug_frame   0x0000415c       0x2c /home/prabha/Sourcery_G++_Lite/bin/../lib/gcc/arm-none-eabi/4.5.2/../../../../arm-none-eabi/lib/thumb2/libc.a(lib_a-memchr.o)
 .debug_frame   0x00004188       0x2c /home/prabha/Sourcery_G++_Lite/bin/../lib/gcc/arm-none-eabi/4.5.2/../../../../arm-none-eabi/lib/thumb2/libc.a(lib_a-memcmp.o)
 .debug_frame   0x000041b4       0x30 /home/prabha/Sourcery_G++_Lite/bin/../lib/gcc/arm-none-eabi/4.5.2/../../../../arm-none-eabi/lib/thumb2/libc.a(lib_a-memcpy.o)
 .debug_frame   0x000041e4       0x2c /home/prabha/Sourcery_G++_Lite/bin/../lib/gcc/arm-none-eabi/4.5.2/../../../../arm-none-eabi/lib/thumb2/libc.a(lib_a-memmove.o)
 .debug_frame   0x00004210       0x2c /home/prabha/Sourcery_G++_Lite/bin/../lib/gcc/arm-none-eabi/4.5.2/../../../../arm-none-eabi/lib/thumb2/libc.a(lib_a-memset.o)
 .debug_frame   0x0000423c       0x30 /home/prabha/Sourcery_G++_Lite/bin/../lib/gcc/arm-none-eabi/4.5.2/../../../../arm-none-eabi/lib/thumb2/libc.a(lib_a-strcmp.o)
 .debug_frame   0x0000426c       0x20 /home/prabha/Sourcery_G++_Lite/bin/../lib/gcc/arm-none-eabi/4.5.2/../../../../arm-none-eabi/lib/thumb2/libc.a(lib_a-strlen.o)
 .debug_frame   0x0000428c       0x2c /home/prabha/Sourcery_G++_Lite/bin/../lib/gcc/arm-none-eabi/4.5.2/../../../../arm-none-eabi/lib/thumb2/libc.a(lib_a-strncmp.o)

.debug_str      0x00000000     0x91c9
 *(.debug_str)
 .debug_str     0x00000000      0x54e stm-sensor.co
                                0x692 (size before relaxing)
 .debug_str     0x0000054e       0x20 obj_mbxxx/symbols.o
                                 0x8e (size before relaxing)
 .debug_str     0x0000056e       0x99 contiki-mbxxx.a(nullmac.o)
                                0x1de (size before relaxing)
 .debug_str     0x00000607      0x532 contiki-mbxxx.a(sicslowmac.o)
                                0x75d (size before relaxing)
 .debug_str     0x00000b39      0x159 contiki-mbxxx.a(process.o)
                                0x2a4 (size before relaxing)
 .debug_str     0x00000c92      0x136 contiki-mbxxx.a(etimer.o)
                                0x2c3 (size before relaxing)
 .debug_str     0x00000dc8       0x33 contiki-mbxxx.a(random.o)
                                0x112 (size before relaxing)
 .debug_str     0x00000dfb      0x257 contiki-mbxxx.a(packetbuf.o)
                                0x65f (size before relaxing)
 .debug_str     0x00001052      0x18d contiki-mbxxx.a(queuebuf.o)
                                0x5e2 (size before relaxing)
 .debug_str     0x000011df      0x3f3 contiki-mbxxx.a(sicslowpan.o)
                                0x9ad (size before relaxing)
 .debug_str     0x000015d2      0x511 contiki-mbxxx.a(tcpip.o)
                                0xa1c (size before relaxing)
 .debug_str     0x00001ae3       0x4c contiki-mbxxx.a(uip-debug.o)
                                0x178 (size before relaxing)
 .debug_str     0x00001b2f      0x358 contiki-mbxxx.a(uip-ds6-route.o)
                                0x631 (size before relaxing)
 .debug_str     0x00001e87      0x1ab contiki-mbxxx.a(uip-ds6-nbr.o)
                                0x7e3 (size before relaxing)
 .debug_str     0x00002032      0x2f0 contiki-mbxxx.a(uip-ds6.o)
                                0x61e (size before relaxing)
 .debug_str     0x00002322       0xf7 contiki-mbxxx.a(uip-nd6.o)
                                0x479 (size before relaxing)
 .debug_str     0x00002419       0x74 contiki-mbxxx.a(uip-udp-packet.)
                                0x23b (size before relaxing)
 .debug_str     0x0000248d      0x2ee contiki-mbxxx.a(uip6.o)
                                0x7a7 (size before relaxing)
 .debug_str     0x0000277b      0x193 contiki-mbxxx.a(button-sensor.o)
                                0x320 (size before relaxing)
 .debug_str     0x0000290e      0x16d contiki-mbxxx.a(temperature-sen)
                                0x429 (size before relaxing)
 .debug_str     0x00002a7b      0x102 contiki-mbxxx.a(mems.o)
                                0x22a (size before relaxing)
 .debug_str     0x00002b7d      0x4bf contiki-mbxxx.a(board.o)
                                0x754 (size before relaxing)
 .debug_str     0x0000303c       0x6f contiki-mbxxx.a(leds.o)
                                0x15d (size before relaxing)
 .debug_str     0x000030ab       0xa8 contiki-mbxxx.a(clock.o)
                                0x1a3 (size before relaxing)
 .debug_str     0x00003153       0x71 contiki-mbxxx.a(watchdog.o)
                                0x14b (size before relaxing)
 .debug_str     0x000031c4      0x3b7 contiki-mbxxx.a(uart1-putchar.o)
                                0x4f7 (size before relaxing)
 .debug_str     0x0000357b      0xf72 contiki-mbxxx.a(stm32w-radio.o)
                               0x155e (size before relaxing)
 .debug_str     0x000044ed      0x125 contiki-mbxxx.a(stm32w-systick.)
                                0x22c (size before relaxing)
 .debug_str     0x00004612       0x49 contiki-mbxxx.a(uip-arch.o)
                                0x151 (size before relaxing)
 .debug_str     0x0000465b       0xcf contiki-mbxxx.a(rtimer-arch.o)
                                0x1de (size before relaxing)
 .debug_str     0x0000472a      0x400 contiki-mbxxx.a(adc.o)
                               0x114c (size before relaxing)
 .debug_str     0x00004b2a      0x284 contiki-mbxxx.a(micro.o)
                                0xeab (size before relaxing)
 .debug_str     0x00004dae      0x2be contiki-mbxxx.a(sleep.o)
                                0x40b (size before relaxing)
 .debug_str     0x0000506c       0xff contiki-mbxxx.a(micro-common.o)
                                0x20b (size before relaxing)
 .debug_str     0x0000516b      0x23e contiki-mbxxx.a(micro-common-in)
                               0x1145 (size before relaxing)
 .debug_str     0x000053a9      0x15f contiki-mbxxx.a(clocks.o)
                                0x577 (size before relaxing)
 .debug_str     0x00005508      0xd38 contiki-mbxxx.a(mfg-token.o)
                               0x1c9c (size before relaxing)
 .debug_str     0x00006240       0xd6 contiki-mbxxx.a(flash.o)
                                0xe37 (size before relaxing)
 .debug_str     0x00006316       0x2f contiki-mbxxx.a(rand.o)
                                0x11c (size before relaxing)
 .debug_str     0x00006345      0x205 contiki-mbxxx.a(crt-stm32w108.o)
                                0x854 (size before relaxing)
 .debug_str     0x0000654a       0x60 contiki-mbxxx.a(rimeaddr.o)
                                0x16b (size before relaxing)
 .debug_str     0x000065aa       0xcd contiki-mbxxx.a(frame802154.o)
                                0x331 (size before relaxing)
 .debug_str     0x00006677       0x32 contiki-mbxxx.a(framer-802154.o)
                                0x5ce (size before relaxing)
 .debug_str     0x000066a9       0xd5 contiki-mbxxx.a(rpl.o)
                                0x6b1 (size before relaxing)
 .debug_str     0x0000677e      0x42f contiki-mbxxx.a(rpl-dag.o)
                                0xa11 (size before relaxing)
 .debug_str     0x00006bad      0x117 contiki-mbxxx.a(rpl-icmp6.o)
                                0xbb3 (size before relaxing)
 .debug_str     0x00006cc4       0xc5 contiki-mbxxx.a(rpl-timers.o)
                                0x58e (size before relaxing)
 .debug_str     0x00006d89       0xa8 contiki-mbxxx.a(rpl-mrhof.o)
                                0x5b8 (size before relaxing)
 .debug_str     0x00006e31       0xff contiki-mbxxx.a(rpl-ext-header.)
                                0x709 (size before relaxing)
 .debug_str     0x00006f30       0x49 contiki-mbxxx.a(memb.o)
                                0x133 (size before relaxing)
 .debug_str     0x00006f79       0x1a contiki-mbxxx.a(timer.o)
                                0x15d (size before relaxing)
 .debug_str     0x00006f93       0xab contiki-mbxxx.a(list.o)
                                0x117 (size before relaxing)
 .debug_str     0x0000703e       0xb0 contiki-mbxxx.a(ctimer.o)
                                0x257 (size before relaxing)
 .debug_str     0x000070ee       0xb0 contiki-mbxxx.a(rtimer.o)
                                0x1b0 (size before relaxing)
 .debug_str     0x0000719e       0x71 contiki-mbxxx.a(stimer.o)
                                0x161 (size before relaxing)
 .debug_str     0x0000720f      0x248 contiki-mbxxx.a(nbr-table.o)
                                0x3ed (size before relaxing)
 .debug_str     0x00007457       0x89 contiki-mbxxx.a(uip-icmp6.o)
                                0x379 (size before relaxing)
 .debug_str     0x000074e0       0xac contiki-mbxxx.a(sensors.o)
                                0x242 (size before relaxing)
 .debug_str     0x0000758c       0x61 contiki-mbxxx.a(contiki-main.o)
                                0x58f (size before relaxing)
 .debug_str     0x000075ed       0x50 contiki-mbxxx.a(leds-arch.o)
                                0x2b0 (size before relaxing)
 .debug_str     0x0000763d       0x96 contiki-mbxxx.a(uart1.o)
                                0x190 (size before relaxing)
 .debug_str     0x000076d3       0x2b contiki-mbxxx.a(procinit.o)
                                0x15b (size before relaxing)
 .debug_str     0x000076fe       0x3d contiki-mbxxx.a(autostart.o)
                                0x16e (size before relaxing)
 .debug_str     0x0000773b       0xb1 contiki-mbxxx.a(serial-line.o)
                                0x22d (size before relaxing)
 .debug_str     0x000077ec       0x5f contiki-mbxxx.a(energest.o)
                                0x13e (size before relaxing)
 .debug_str     0x0000784b       0x5f contiki-mbxxx.a(ringbuf.o)
                                0x170 (size before relaxing)
 .debug_str     0x000078aa       0x2b contiki-mbxxx.a(netstack.o)
                                0x222 (size before relaxing)
 .debug_str     0x000078d5       0x38 contiki-mbxxx.a(contact-sensor.)
                                0x164 (size before relaxing)
 .debug_str     0x0000790d      0x5f5 ../../../cpu/stm32w108/simplemac/library/simplemac-library-gnu.a(phy-library-min.o)
                               0x11ae (size before relaxing)
 .debug_str     0x00007f02       0x94 ../../../cpu/stm32w108/simplemac/library/simplemac-library-gnu.a(aes-min.o)
                                0x12f (size before relaxing)
 .debug_str     0x00007f96       0x25 ../../../cpu/stm32w108/simplemac/library/simplemac-library-gnu.a(eui64-min.o)
                                0x3cc (size before relaxing)
 .debug_str     0x00007fbb       0x46 ../../../cpu/stm32w108/simplemac/library/simplemac-library-gnu.a(misc-min.o)
                                 0xde (size before relaxing)
 .debug_str     0x00008001      0x2f0 ../../../cpu/stm32w108/simplemac/library/simplemac-library-gnu.a(phy-min.o)
                                0xea3 (size before relaxing)
 .debug_str     0x000082f1      0x413 ../../../cpu/stm32w108/simplemac/library/simplemac-library-gnu.a(analogue-min.o)
                               0x13c6 (size before relaxing)
 .debug_str     0x00008704       0xc9 ../../../cpu/stm32w108/simplemac/library/simplemac-library-gnu.a(analogue-cell-bias-min.o)
                                0x55c (size before relaxing)
 .debug_str     0x000087cd       0x67 ../../../cpu/stm32w108/simplemac/library/simplemac-library-gnu.a(analogue-filter-min.o)
                                0x465 (size before relaxing)
 .debug_str     0x00008834      0x101 ../../../cpu/stm32w108/simplemac/library/simplemac-library-gnu.a(analogue-lna-min.o)
                                0x311 (size before relaxing)
 .debug_str     0x00008935      0x139 ../../../cpu/stm32w108/simplemac/library/simplemac-library-gnu.a(analogue-mod-dac-min.o)
                                0x32e (size before relaxing)
 .debug_str     0x00008a6e       0x84 ../../../cpu/stm32w108/simplemac/library/simplemac-library-gnu.a(analogue-vco-min.o)
                                0x17b (size before relaxing)
 .debug_str     0x00008af2      0x5f8 ../../../cpu/stm32w108/simplemac/library/simplemac-library-gnu.a(phy-common-min.o)
                               0x1339 (size before relaxing)
 .debug_str     0x000090ea       0xdf contiki-mbxxx.a(nvm.o)
                                0xcf8 (size before relaxing)

.debug_loc      0x00000000     0xc56d
 *(.debug_loc)
 .debug_loc     0x00000000      0x6c5 stm-sensor.co
 .debug_loc     0x000006c5       0xb9 contiki-mbxxx.a(nullmac.o)
 .debug_loc     0x0000077e      0x246 contiki-mbxxx.a(sicslowmac.o)
 .debug_loc     0x000009c4      0x345 contiki-mbxxx.a(process.o)
 .debug_loc     0x00000d09      0x3e0 contiki-mbxxx.a(etimer.o)
 .debug_loc     0x000010e9       0x20 contiki-mbxxx.a(random.o)
 .debug_loc     0x00001109      0x367 contiki-mbxxx.a(packetbuf.o)
 .debug_loc     0x00001470      0x343 contiki-mbxxx.a(queuebuf.o)
 .debug_loc     0x000017b3      0x90b contiki-mbxxx.a(sicslowpan.o)
 .debug_loc     0x000020be      0x5d2 contiki-mbxxx.a(tcpip.o)
 .debug_loc     0x00002690       0xc4 contiki-mbxxx.a(uip-debug.o)
 .debug_loc     0x00002754      0x786 contiki-mbxxx.a(uip-ds6-route.o)
 .debug_loc     0x00002eda      0x418 contiki-mbxxx.a(uip-ds6-nbr.o)
 .debug_loc     0x000032f2      0x688 contiki-mbxxx.a(uip-ds6.o)
 .debug_loc     0x0000397a      0x20f contiki-mbxxx.a(uip-nd6.o)
 .debug_loc     0x00003b89      0x11d contiki-mbxxx.a(uip-udp-packet.)
 .debug_loc     0x00003ca6      0x5cf contiki-mbxxx.a(uip6.o)
 .debug_loc     0x00004275       0xd8 contiki-mbxxx.a(button-sensor.o)
 .debug_loc     0x0000434d       0xb3 contiki-mbxxx.a(temperature-sen)
 .debug_loc     0x00004400      0x36e contiki-mbxxx.a(mems.o)
 .debug_loc     0x0000476e      0x273 contiki-mbxxx.a(board.o)
 .debug_loc     0x000049e1       0xb4 contiki-mbxxx.a(leds.o)
 .debug_loc     0x00004a95       0xcd contiki-mbxxx.a(clock.o)
 .debug_loc     0x00004b62      0x154 contiki-mbxxx.a(uart1-putchar.o)
 .debug_loc     0x00004cb6      0x493 contiki-mbxxx.a(stm32w-radio.o)
 .debug_loc     0x00005149       0x51 contiki-mbxxx.a(stm32w-systick.)
 .debug_loc     0x0000519a       0x26 contiki-mbxxx.a(uip-arch.o)
 .debug_loc     0x000051c0      0x107 contiki-mbxxx.a(rtimer-arch.o)
 .debug_loc     0x000052c7      0x337 contiki-mbxxx.a(adc.o)
 .debug_loc     0x000055fe      0x1b8 contiki-mbxxx.a(micro.o)
 .debug_loc     0x000057b6      0x530 contiki-mbxxx.a(sleep.o)
 .debug_loc     0x00005ce6       0x6e contiki-mbxxx.a(micro-common.o)
 .debug_loc     0x00005d54      0x220 contiki-mbxxx.a(micro-common-in)
 .debug_loc     0x00005f74      0x1f9 contiki-mbxxx.a(clocks.o)
 .debug_loc     0x0000616d      0x1c3 contiki-mbxxx.a(mfg-token.o)
 .debug_loc     0x00006330      0x1bd contiki-mbxxx.a(flash.o)
 .debug_loc     0x000064ed       0x20 contiki-mbxxx.a(rand.o)
 .debug_loc     0x0000650d      0x151 contiki-mbxxx.a(crt-stm32w108.o)
 .debug_loc     0x0000665e       0x64 contiki-mbxxx.a(rimeaddr.o)
 .debug_loc     0x000066c2      0x2fa contiki-mbxxx.a(frame802154.o)
 .debug_loc     0x000069bc       0xd3 contiki-mbxxx.a(framer-802154.o)
 .debug_loc     0x00006a8f      0x319 contiki-mbxxx.a(rpl.o)
 .debug_loc     0x00006da8     0x126d contiki-mbxxx.a(rpl-dag.o)
 .debug_loc     0x00008015      0xa13 contiki-mbxxx.a(rpl-icmp6.o)
 .debug_loc     0x00008a28      0x20e contiki-mbxxx.a(rpl-timers.o)
 .debug_loc     0x00008c36      0x1f6 contiki-mbxxx.a(rpl-mrhof.o)
 .debug_loc     0x00008e2c      0x239 contiki-mbxxx.a(rpl-ext-header.)
 .debug_loc     0x00009065      0x18c contiki-mbxxx.a(memb.o)
 .debug_loc     0x000091f1      0x11b contiki-mbxxx.a(timer.o)
 .debug_loc     0x0000930c      0x2e7 contiki-mbxxx.a(list.o)
 .debug_loc     0x000095f3      0x3af contiki-mbxxx.a(ctimer.o)
 .debug_loc     0x000099a2       0xf0 contiki-mbxxx.a(rtimer.o)
 .debug_loc     0x00009a92      0x13e contiki-mbxxx.a(stimer.o)
 .debug_loc     0x00009bd0      0x857 contiki-mbxxx.a(nbr-table.o)
 .debug_loc     0x0000a427      0x14a contiki-mbxxx.a(uip-icmp6.o)
 .debug_loc     0x0000a571      0x217 contiki-mbxxx.a(sensors.o)
 .debug_loc     0x0000a788       0x94 contiki-mbxxx.a(contiki-main.o)
 .debug_loc     0x0000a81c       0x73 contiki-mbxxx.a(leds-arch.o)
 .debug_loc     0x0000a88f      0x110 contiki-mbxxx.a(uart1.o)
 .debug_loc     0x0000a99f       0x34 contiki-mbxxx.a(procinit.o)
 .debug_loc     0x0000a9d3       0x8e contiki-mbxxx.a(autostart.o)
 .debug_loc     0x0000aa61      0x180 contiki-mbxxx.a(serial-line.o)
 .debug_loc     0x0000abe1       0x13 contiki-mbxxx.a(energest.o)
 .debug_loc     0x0000abf4       0xa8 contiki-mbxxx.a(ringbuf.o)
 .debug_loc     0x0000ac9c       0x20 contiki-mbxxx.a(netstack.o)
 .debug_loc     0x0000acbc       0xb3 contiki-mbxxx.a(contact-sensor.)
 .debug_loc     0x0000ad6f      0x2f8 ../../../cpu/stm32w108/simplemac/library/simplemac-library-gnu.a(phy-library-min.o)
 .debug_loc     0x0000b067      0x11e ../../../cpu/stm32w108/simplemac/library/simplemac-library-gnu.a(aes-min.o)
 .debug_loc     0x0000b185      0x112 ../../../cpu/stm32w108/simplemac/library/simplemac-library-gnu.a(misc-min.o)
 .debug_loc     0x0000b297      0x261 ../../../cpu/stm32w108/simplemac/library/simplemac-library-gnu.a(phy-min.o)
 .debug_loc     0x0000b4f8      0x38a ../../../cpu/stm32w108/simplemac/library/simplemac-library-gnu.a(analogue-min.o)
 .debug_loc     0x0000b882       0xa3 ../../../cpu/stm32w108/simplemac/library/simplemac-library-gnu.a(analogue-cell-bias-min.o)
 .debug_loc     0x0000b925       0x45 ../../../cpu/stm32w108/simplemac/library/simplemac-library-gnu.a(analogue-filter-min.o)
 .debug_loc     0x0000b96a      0x280 ../../../cpu/stm32w108/simplemac/library/simplemac-library-gnu.a(analogue-lna-min.o)
 .debug_loc     0x0000bbea      0x133 ../../../cpu/stm32w108/simplemac/library/simplemac-library-gnu.a(analogue-mod-dac-min.o)
 .debug_loc     0x0000bd1d       0x8f ../../../cpu/stm32w108/simplemac/library/simplemac-library-gnu.a(analogue-vco-min.o)
 .debug_loc     0x0000bdac      0x27d ../../../cpu/stm32w108/simplemac/library/simplemac-library-gnu.a(phy-common-min.o)
 .debug_loc     0x0000c029      0x544 contiki-mbxxx.a(nvm.o)

.debug_macinfo
 *(.debug_macinfo)

.debug_weaknames
 *(.debug_weaknames)

.debug_funcnames
 *(.debug_funcnames)

.debug_typenames
 *(.debug_typenames)

.debug_varnames
 *(.debug_varnames)
                0x0800ccd8                __ApplicationFlashEnd = (_sidata + (_edata - _sdata))
                0x20000000                __RAMStart = __Stack_Init
                0x20001c2c                __RAMEnd = _ebss
Address of section .coffee set to 0x801f800
LOAD stm-sensor.co
LOAD obj_mbxxx/symbols.o
START GROUP
LOAD contiki-mbxxx.a
LOAD ../../../cpu/stm32w108/simplemac/library/simplemac-library-gnu.a
LOAD ../../../cpu/stm32w108/lib/e_stdio_intonly_thumb2.a
END GROUP
START GROUP
LOAD /home/prabha/Sourcery_G++_Lite/bin/../lib/gcc/arm-none-eabi/4.5.2/thumb2/libgcc.a
LOAD /home/prabha/Sourcery_G++_Lite/bin/../lib/gcc/arm-none-eabi/4.5.2/../../../../arm-none-eabi/lib/thumb2/libc.a
END GROUP
OUTPUT(stm-sensor.mbxxx elf32-littlearm)

.coffee         0x0801f800        0x0

.debug_pubtypes
                0x00000000     0x45fb
 .debug_pubtypes
                0x00000000      0x2b6 stm-sensor.co
 .debug_pubtypes
                0x000002b6       0x1e obj_mbxxx/symbols.o
 .debug_pubtypes
                0x000002d4       0x67 contiki-mbxxx.a(nullmac.o)
 .debug_pubtypes
                0x0000033b       0xf2 contiki-mbxxx.a(sicslowmac.o)
 .debug_pubtypes
                0x0000042d       0x7d contiki-mbxxx.a(process.o)
 .debug_pubtypes
                0x000004aa       0x7b contiki-mbxxx.a(etimer.o)
 .debug_pubtypes
                0x00000525       0x12 contiki-mbxxx.a(random.o)
 .debug_pubtypes
                0x00000537       0x75 contiki-mbxxx.a(packetbuf.o)
 .debug_pubtypes
                0x000005ac       0xae contiki-mbxxx.a(queuebuf.o)
 .debug_pubtypes
                0x0000065a      0x193 contiki-mbxxx.a(sicslowpan.o)
 .debug_pubtypes
                0x000007ed      0x44e contiki-mbxxx.a(tcpip.o)
 .debug_pubtypes
                0x00000c3b       0xa1 contiki-mbxxx.a(uip-debug.o)
 .debug_pubtypes
                0x00000cdc      0x21b contiki-mbxxx.a(uip-ds6-route.o)
 .debug_pubtypes
                0x00000ef7      0x201 contiki-mbxxx.a(uip-ds6-nbr.o)
 .debug_pubtypes
                0x000010f8      0x215 contiki-mbxxx.a(uip-ds6.o)
 .debug_pubtypes
                0x0000130d      0x229 contiki-mbxxx.a(uip-nd6.o)
 .debug_pubtypes
                0x00001536       0xf9 contiki-mbxxx.a(uip-udp-packet.)
 .debug_pubtypes
                0x0000162f      0x290 contiki-mbxxx.a(uip6.o)
 .debug_pubtypes
                0x000018bf      0x191 contiki-mbxxx.a(button-sensor.o)
 .debug_pubtypes
                0x00001a50      0x19b contiki-mbxxx.a(temperature-sen)
 .debug_pubtypes
                0x00001beb       0x52 contiki-mbxxx.a(mems.o)
 .debug_pubtypes
                0x00001c3d      0x17b contiki-mbxxx.a(board.o)
 .debug_pubtypes
                0x00001db8       0x12 contiki-mbxxx.a(leds.o)
 .debug_pubtypes
                0x00001dca       0x37 contiki-mbxxx.a(clock.o)
 .debug_pubtypes
                0x00001e01       0x12 contiki-mbxxx.a(watchdog.o)
 .debug_pubtypes
                0x00001e13      0x110 contiki-mbxxx.a(uart1-putchar.o)
 .debug_pubtypes
                0x00001f23      0x130 contiki-mbxxx.a(stm32w-radio.o)
 .debug_pubtypes
                0x00002053       0x6a contiki-mbxxx.a(stm32w-systick.)
 .debug_pubtypes
                0x000020bd       0x38 contiki-mbxxx.a(uip-arch.o)
 .debug_pubtypes
                0x000020f5       0x4b contiki-mbxxx.a(rtimer-arch.o)
 .debug_pubtypes
                0x00002140       0xad contiki-mbxxx.a(adc.o)
 .debug_pubtypes
                0x000021ed      0x10d contiki-mbxxx.a(micro.o)
 .debug_pubtypes
                0x000022fa       0x46 contiki-mbxxx.a(sleep.o)
 .debug_pubtypes
                0x00002340       0x44 contiki-mbxxx.a(micro-common.o)
 .debug_pubtypes
                0x00002384       0xa2 contiki-mbxxx.a(micro-common-in)
 .debug_pubtypes
                0x00002426       0x79 contiki-mbxxx.a(clocks.o)
 .debug_pubtypes
                0x0000249f       0x59 contiki-mbxxx.a(mfg-token.o)
 .debug_pubtypes
                0x000024f8       0xe2 contiki-mbxxx.a(flash.o)
 .debug_pubtypes
                0x000025da       0x1f contiki-mbxxx.a(rand.o)
 .debug_pubtypes
                0x000025f9      0x25c contiki-mbxxx.a(crt-stm32w108.o)
 .debug_pubtypes
                0x00002855       0x21 contiki-mbxxx.a(rimeaddr.o)
 .debug_pubtypes
                0x00002876       0xb2 contiki-mbxxx.a(frame802154.o)
 .debug_pubtypes
                0x00002928       0xaa contiki-mbxxx.a(framer-802154.o)
 .debug_pubtypes
                0x000029d2      0x317 contiki-mbxxx.a(rpl.o)
 .debug_pubtypes
                0x00002ce9      0x32d contiki-mbxxx.a(rpl-dag.o)
 .debug_pubtypes
                0x00003016      0x3e6 contiki-mbxxx.a(rpl-icmp6.o)
 .debug_pubtypes
                0x000033fc      0x233 contiki-mbxxx.a(rpl-timers.o)
 .debug_pubtypes
                0x0000362f      0x249 contiki-mbxxx.a(rpl-mrhof.o)
 .debug_pubtypes
                0x00003878      0x30f contiki-mbxxx.a(rpl-ext-header.)
 .debug_pubtypes
                0x00003b87       0x1b contiki-mbxxx.a(memb.o)
 .debug_pubtypes
                0x00003ba2       0x2d contiki-mbxxx.a(timer.o)
 .debug_pubtypes
                0x00003bcf       0x26 contiki-mbxxx.a(list.o)
 .debug_pubtypes
                0x00003bf5       0x91 contiki-mbxxx.a(ctimer.o)
 .debug_pubtypes
                0x00003c86       0x46 contiki-mbxxx.a(rtimer.o)
 .debug_pubtypes
                0x00003ccc       0x1d contiki-mbxxx.a(stimer.o)
 .debug_pubtypes
                0x00003ce9       0xb1 contiki-mbxxx.a(nbr-table.o)
 .debug_pubtypes
                0x00003d9a      0x160 contiki-mbxxx.a(uip-icmp6.o)
 .debug_pubtypes
                0x00003efa       0x68 contiki-mbxxx.a(sensors.o)
 .debug_pubtypes
                0x00003f62      0x2bc contiki-mbxxx.a(contiki-main.o)
 .debug_pubtypes
                0x0000421e      0x163 contiki-mbxxx.a(leds-arch.o)
 .debug_pubtypes
                0x00004381       0x38 contiki-mbxxx.a(uart1.o)
 .debug_pubtypes
                0x000043b9       0x55 contiki-mbxxx.a(procinit.o)
 .debug_pubtypes
                0x0000440e       0x55 contiki-mbxxx.a(autostart.o)
 .debug_pubtypes
                0x00004463       0x6d contiki-mbxxx.a(serial-line.o)
 .debug_pubtypes
                0x000044d0       0x12 contiki-mbxxx.a(energest.o)
 .debug_pubtypes
                0x000044e2       0x2a contiki-mbxxx.a(ringbuf.o)
 .debug_pubtypes
                0x0000450c       0x78 contiki-mbxxx.a(netstack.o)
 .debug_pubtypes
                0x00004584       0x32 contiki-mbxxx.a(contact-sensor.)
 .debug_pubtypes
                0x000045b6       0x45 contiki-mbxxx.a(nvm.o)

.debug_ranges   0x00000000     0x1e88
 .debug_ranges  0x00000000       0xe8 stm-sensor.co
 .debug_ranges  0x000000e8       0x38 contiki-mbxxx.a(nullmac.o)
 .debug_ranges  0x00000120       0x40 contiki-mbxxx.a(sicslowmac.o)
 .debug_ranges  0x00000160       0x70 contiki-mbxxx.a(process.o)
 .debug_ranges  0x000001d0       0x90 contiki-mbxxx.a(etimer.o)
 .debug_ranges  0x00000260       0x18 contiki-mbxxx.a(random.o)
 .debug_ranges  0x00000278       0xd0 contiki-mbxxx.a(packetbuf.o)
 .debug_ranges  0x00000348       0x78 contiki-mbxxx.a(queuebuf.o)
 .debug_ranges  0x000003c0       0xa0 contiki-mbxxx.a(sicslowpan.o)
 .debug_ranges  0x00000460      0x130 contiki-mbxxx.a(tcpip.o)
 .debug_ranges  0x00000590       0x18 contiki-mbxxx.a(uip-debug.o)
 .debug_ranges  0x000005a8       0xe8 contiki-mbxxx.a(uip-ds6-route.o)
 .debug_ranges  0x00000690       0x70 contiki-mbxxx.a(uip-ds6-nbr.o)
 .debug_ranges  0x00000700       0xb8 contiki-mbxxx.a(uip-ds6.o)
 .debug_ranges  0x000007b8       0x40 contiki-mbxxx.a(uip-nd6.o)
 .debug_ranges  0x000007f8       0x18 contiki-mbxxx.a(uip-udp-packet.)
 .debug_ranges  0x00000810       0xa0 contiki-mbxxx.a(uip6.o)
 .debug_ranges  0x000008b0       0x28 contiki-mbxxx.a(button-sensor.o)
 .debug_ranges  0x000008d8       0x20 contiki-mbxxx.a(temperature-sen)
 .debug_ranges  0x000008f8      0x218 contiki-mbxxx.a(mems.o)
 .debug_ranges  0x00000b10       0x60 contiki-mbxxx.a(board.o)
 .debug_ranges  0x00000b70       0x48 contiki-mbxxx.a(leds.o)
 .debug_ranges  0x00000bb8       0x50 contiki-mbxxx.a(clock.o)
 .debug_ranges  0x00000c08       0x30 contiki-mbxxx.a(watchdog.o)
 .debug_ranges  0x00000c38       0x28 contiki-mbxxx.a(uart1-putchar.o)
 .debug_ranges  0x00000c60       0xe8 contiki-mbxxx.a(stm32w-radio.o)
 .debug_ranges  0x00000d48       0x38 contiki-mbxxx.a(stm32w-systick.)
 .debug_ranges  0x00000d80       0x10 contiki-mbxxx.a(uip-arch.o)
 .debug_ranges  0x00000d90       0x50 contiki-mbxxx.a(rtimer-arch.o)
 .debug_ranges  0x00000de0       0x70 contiki-mbxxx.a(adc.o)
 .debug_ranges  0x00000e50       0x78 contiki-mbxxx.a(micro.o)
 .debug_ranges  0x00000ec8       0x50 contiki-mbxxx.a(sleep.o)
 .debug_ranges  0x00000f18       0x40 contiki-mbxxx.a(micro-common.o)
 .debug_ranges  0x00000f58       0x70 contiki-mbxxx.a(micro-common-in)
 .debug_ranges  0x00000fc8       0x68 contiki-mbxxx.a(clocks.o)
 .debug_ranges  0x00001030       0x18 contiki-mbxxx.a(mfg-token.o)
 .debug_ranges  0x00001048       0x48 contiki-mbxxx.a(flash.o)
 .debug_ranges  0x00001090       0x18 contiki-mbxxx.a(rand.o)
 .debug_ranges  0x000010a8       0x70 contiki-mbxxx.a(crt-stm32w108.o)
 .debug_ranges  0x00001118       0x20 contiki-mbxxx.a(rimeaddr.o)
 .debug_ranges  0x00001138       0x30 contiki-mbxxx.a(frame802154.o)
 .debug_ranges  0x00001168       0x18 contiki-mbxxx.a(framer-802154.o)
 .debug_ranges  0x00001180       0x40 contiki-mbxxx.a(rpl.o)
 .debug_ranges  0x000011c0      0x170 contiki-mbxxx.a(rpl-dag.o)
 .debug_ranges  0x00001330       0xb8 contiki-mbxxx.a(rpl-icmp6.o)
 .debug_ranges  0x000013e8       0x40 contiki-mbxxx.a(rpl-timers.o)
 .debug_ranges  0x00001428       0x40 contiki-mbxxx.a(rpl-mrhof.o)
 .debug_ranges  0x00001468       0x38 contiki-mbxxx.a(rpl-ext-header.)
 .debug_ranges  0x000014a0       0x28 contiki-mbxxx.a(memb.o)
 .debug_ranges  0x000014c8       0x30 contiki-mbxxx.a(timer.o)
 .debug_ranges  0x000014f8       0x68 contiki-mbxxx.a(list.o)
 .debug_ranges  0x00001560       0x58 contiki-mbxxx.a(ctimer.o)
 .debug_ranges  0x000015b8       0x20 contiki-mbxxx.a(rtimer.o)
 .debug_ranges  0x000015d8       0x38 contiki-mbxxx.a(stimer.o)
 .debug_ranges  0x00001610       0xc0 contiki-mbxxx.a(nbr-table.o)
 .debug_ranges  0x000016d0       0x20 contiki-mbxxx.a(uip-icmp6.o)
 .debug_ranges  0x000016f0       0x50 contiki-mbxxx.a(sensors.o)
 .debug_ranges  0x00001740       0x10 contiki-mbxxx.a(contiki-main.o)
 .debug_ranges  0x00001750       0x20 contiki-mbxxx.a(leds-arch.o)
 .debug_ranges  0x00001770       0x30 contiki-mbxxx.a(uart1.o)
 .debug_ranges  0x000017a0       0x10 contiki-mbxxx.a(procinit.o)
 .debug_ranges  0x000017b0       0x18 contiki-mbxxx.a(autostart.o)
 .debug_ranges  0x000017c8       0x50 contiki-mbxxx.a(serial-line.o)
 .debug_ranges  0x00001818       0x28 contiki-mbxxx.a(energest.o)
 .debug_ranges  0x00001840       0x30 contiki-mbxxx.a(ringbuf.o)
 .debug_ranges  0x00001870       0x10 contiki-mbxxx.a(netstack.o)
 .debug_ranges  0x00001880       0x28 contiki-mbxxx.a(contact-sensor.)
 .debug_ranges  0x000018a8      0x1c0 ../../../cpu/stm32w108/simplemac/library/simplemac-library-gnu.a(phy-library-min.o)
 .debug_ranges  0x00001a68       0x38 ../../../cpu/stm32w108/simplemac/library/simplemac-library-gnu.a(aes-min.o)
 .debug_ranges  0x00001aa0       0x18 ../../../cpu/stm32w108/simplemac/library/simplemac-library-gnu.a(eui64-min.o)
 .debug_ranges  0x00001ab8       0x40 ../../../cpu/stm32w108/simplemac/library/simplemac-library-gnu.a(misc-min.o)
 .debug_ranges  0x00001af8       0x78 ../../../cpu/stm32w108/simplemac/library/simplemac-library-gnu.a(phy-min.o)
 .debug_ranges  0x00001b70       0xa8 ../../../cpu/stm32w108/simplemac/library/simplemac-library-gnu.a(analogue-min.o)
 .debug_ranges  0x00001c18       0x18 ../../../cpu/stm32w108/simplemac/library/simplemac-library-gnu.a(analogue-cell-bias-min.o)
 .debug_ranges  0x00001c30       0x18 ../../../cpu/stm32w108/simplemac/library/simplemac-library-gnu.a(analogue-filter-min.o)
 .debug_ranges  0x00001c48       0x20 ../../../cpu/stm32w108/simplemac/library/simplemac-library-gnu.a(analogue-lna-min.o)
 .debug_ranges  0x00001c68       0x58 ../../../cpu/stm32w108/simplemac/library/simplemac-library-gnu.a(analogue-mod-dac-min.o)
 .debug_ranges  0x00001cc0       0x20 ../../../cpu/stm32w108/simplemac/library/simplemac-library-gnu.a(analogue-vco-min.o)
 .debug_ranges  0x00001ce0      0x160 ../../../cpu/stm32w108/simplemac/library/simplemac-library-gnu.a(phy-common-min.o)
 .debug_ranges  0x00001e40       0x48 contiki-mbxxx.a(nvm.o)

stm-sensor.mbxxx  :
section             size        addr
.isr_vector          132   134217728
.text              51704   134217860
NVM                 2048   134346752
FAT                   44   134479872
.data                604   536872192
.bss                5328   536872796
.ARM.attributes       47           0
.comment             768           0
.debug_aranges      7352           0
.debug_pubnames    17277           0
.debug_info       130922           0
.debug_abbrev      34178           0
.debug_line        46021           0
.debug_frame       17080           0
.debug_str         37321           0
.debug_loc         50541           0
.debug_pubtypes    17915           0
.debug_ranges       7816           0
Total             427098


